
atmega_light.elf:     file format elf32-avr

Sections:
Idx Name          Size      VMA       LMA       File off  Algn
  0 .data         000003f6  00800100  00001956  000019ea  2**0
                  CONTENTS, ALLOC, LOAD, DATA
  1 .text         00001956  00000000  00000000  00000094  2**1
                  CONTENTS, ALLOC, LOAD, READONLY, CODE
  2 .bss          000001aa  008004f6  008004f6  00001de0  2**0
                  ALLOC
  3 .comment      00000030  00000000  00000000  00001de0  2**0
                  CONTENTS, READONLY
  4 .note.gnu.avr.deviceinfo 0000003c  00000000  00000000  00001e10  2**2
                  CONTENTS, READONLY
  5 .debug_aranges 00000128  00000000  00000000  00001e4c  2**0
                  CONTENTS, READONLY, DEBUGGING
  6 .debug_info   0000318d  00000000  00000000  00001f74  2**0
                  CONTENTS, READONLY, DEBUGGING
  7 .debug_abbrev 00000930  00000000  00000000  00005101  2**0
                  CONTENTS, READONLY, DEBUGGING
  8 .debug_line   00001669  00000000  00000000  00005a31  2**0
                  CONTENTS, READONLY, DEBUGGING
  9 .debug_frame  000004b0  00000000  00000000  0000709c  2**2
                  CONTENTS, READONLY, DEBUGGING
 10 .debug_str    00000ecf  00000000  00000000  0000754c  2**0
                  CONTENTS, READONLY, DEBUGGING
 11 .debug_loc    00001eb1  00000000  00000000  0000841b  2**0
                  CONTENTS, READONLY, DEBUGGING
 12 .debug_ranges 00000118  00000000  00000000  0000a2cc  2**0
                  CONTENTS, READONLY, DEBUGGING

Disassembly of section .text:

00000000 <__vectors>:
       0:	0c 94 3f 00 	jmp	0x7e	; 0x7e <__ctors_end>
       4:	0c 94 5c 00 	jmp	0xb8	; 0xb8 <__bad_interrupt>
       8:	0c 94 5c 00 	jmp	0xb8	; 0xb8 <__bad_interrupt>
       c:	0c 94 5c 00 	jmp	0xb8	; 0xb8 <__bad_interrupt>
      10:	0c 94 5c 00 	jmp	0xb8	; 0xb8 <__bad_interrupt>
      14:	0c 94 5c 00 	jmp	0xb8	; 0xb8 <__bad_interrupt>
      18:	0c 94 5c 00 	jmp	0xb8	; 0xb8 <__bad_interrupt>
      1c:	0c 94 5c 00 	jmp	0xb8	; 0xb8 <__bad_interrupt>
      20:	0c 94 5c 00 	jmp	0xb8	; 0xb8 <__bad_interrupt>
      24:	0c 94 5c 00 	jmp	0xb8	; 0xb8 <__bad_interrupt>
      28:	0c 94 5c 00 	jmp	0xb8	; 0xb8 <__bad_interrupt>
      2c:	0c 94 5c 00 	jmp	0xb8	; 0xb8 <__bad_interrupt>
      30:	0c 94 5c 00 	jmp	0xb8	; 0xb8 <__bad_interrupt>
      34:	0c 94 5c 00 	jmp	0xb8	; 0xb8 <__bad_interrupt>
      38:	0c 94 5c 00 	jmp	0xb8	; 0xb8 <__bad_interrupt>
      3c:	0c 94 5c 00 	jmp	0xb8	; 0xb8 <__bad_interrupt>
      40:	0c 94 5c 00 	jmp	0xb8	; 0xb8 <__bad_interrupt>
      44:	0c 94 5c 00 	jmp	0xb8	; 0xb8 <__bad_interrupt>
      48:	0c 94 2a 0c 	jmp	0x1854	; 0x1854 <__vector_18>
      4c:	0c 94 5c 00 	jmp	0xb8	; 0xb8 <__bad_interrupt>
      50:	0c 94 5c 00 	jmp	0xb8	; 0xb8 <__bad_interrupt>
      54:	0c 94 5c 00 	jmp	0xb8	; 0xb8 <__bad_interrupt>
      58:	0c 94 5c 00 	jmp	0xb8	; 0xb8 <__bad_interrupt>
      5c:	0c 94 5c 00 	jmp	0xb8	; 0xb8 <__bad_interrupt>
      60:	0c 94 5c 00 	jmp	0xb8	; 0xb8 <__bad_interrupt>
      64:	0c 94 5c 00 	jmp	0xb8	; 0xb8 <__bad_interrupt>
      68:	1a 08       	sbc	r1, r10
      6a:	37 08       	sbc	r3, r7
      6c:	2c 08       	sbc	r2, r12
      6e:	5f 08       	sbc	r5, r15
      70:	62 08       	sbc	r6, r2
      72:	0c 0b       	sbc	r16, r28
      74:	0c 0b       	sbc	r16, r28
      76:	2c 0a       	sbc	r2, r28
      78:	66 0a       	sbc	r6, r22
      7a:	b5 09       	sbc	r27, r5
      7c:	ff 09       	sbc	r31, r15

0000007e <__ctors_end>:
      7e:	11 24       	eor	r1, r1
      80:	1f be       	out	0x3f, r1	; 63
      82:	cf ef       	ldi	r28, 0xFF	; 255
      84:	d8 e0       	ldi	r29, 0x08	; 8
      86:	de bf       	out	0x3e, r29	; 62
      88:	cd bf       	out	0x3d, r28	; 61

0000008a <__do_copy_data>:
      8a:	14 e0       	ldi	r17, 0x04	; 4
      8c:	a0 e0       	ldi	r26, 0x00	; 0
      8e:	b1 e0       	ldi	r27, 0x01	; 1
      90:	e6 e5       	ldi	r30, 0x56	; 86
      92:	f9 e1       	ldi	r31, 0x19	; 25
      94:	02 c0       	rjmp	.+4      	; 0x9a <__do_copy_data+0x10>
      96:	05 90       	lpm	r0, Z+
      98:	0d 92       	st	X+, r0
      9a:	a6 3f       	cpi	r26, 0xF6	; 246
      9c:	b1 07       	cpc	r27, r17
      9e:	d9 f7       	brne	.-10     	; 0x96 <__do_copy_data+0xc>

000000a0 <__do_clear_bss>:
      a0:	26 e0       	ldi	r18, 0x06	; 6
      a2:	a6 ef       	ldi	r26, 0xF6	; 246
      a4:	b4 e0       	ldi	r27, 0x04	; 4
      a6:	01 c0       	rjmp	.+2      	; 0xaa <.do_clear_bss_start>

000000a8 <.do_clear_bss_loop>:
      a8:	1d 92       	st	X+, r1

000000aa <.do_clear_bss_start>:
      aa:	a0 3a       	cpi	r26, 0xA0	; 160
      ac:	b2 07       	cpc	r27, r18
      ae:	e1 f7       	brne	.-8      	; 0xa8 <.do_clear_bss_loop>
      b0:	0e 94 1b 0b 	call	0x1636	; 0x1636 <main>
      b4:	0c 94 a9 0c 	jmp	0x1952	; 0x1952 <_exit>

000000b8 <__bad_interrupt>:
      b8:	0c 94 00 00 	jmp	0	; 0x0 <__vectors>

000000bc <_ZL12to_upper_strPKcPch>:
    if (y + h < ST7789_HEIGHT) {
        uint16_t clear_y = y + h;
        uint16_t clear_h = ST7789_HEIGHT - clear_y;
        st7789_fill_rect(0, clear_y, ST7789_WIDTH, clear_h, black);
    }
}
      bc:	dc 01       	movw	r26, r24
      be:	50 e0       	ldi	r21, 0x00	; 0
      c0:	e5 2f       	mov	r30, r21
      c2:	f0 e0       	ldi	r31, 0x00	; 0
      c4:	24 2f       	mov	r18, r20
      c6:	30 e0       	ldi	r19, 0x00	; 0
      c8:	21 50       	subi	r18, 0x01	; 1
      ca:	31 09       	sbc	r19, r1
      cc:	e2 17       	cp	r30, r18
      ce:	f3 07       	cpc	r31, r19
      d0:	8c f4       	brge	.+34     	; 0xf4 <_ZL12to_upper_strPKcPch+0x38>
      d2:	10 97       	sbiw	r26, 0x00	; 0
      d4:	79 f0       	breq	.+30     	; 0xf4 <_ZL12to_upper_strPKcPch+0x38>
      d6:	9c 91       	ld	r25, X
      d8:	99 23       	and	r25, r25
      da:	61 f0       	breq	.+24     	; 0xf4 <_ZL12to_upper_strPKcPch+0x38>
      dc:	11 96       	adiw	r26, 0x01	; 1
      de:	8f e9       	ldi	r24, 0x9F	; 159
      e0:	89 0f       	add	r24, r25
      e2:	8a 31       	cpi	r24, 0x1A	; 26
      e4:	08 f4       	brcc	.+2      	; 0xe8 <_ZL12to_upper_strPKcPch+0x2c>
      e6:	90 52       	subi	r25, 0x20	; 32
      e8:	fb 01       	movw	r30, r22
      ea:	e5 0f       	add	r30, r21
      ec:	f1 1d       	adc	r31, r1
      ee:	90 83       	st	Z, r25
      f0:	5f 5f       	subi	r21, 0xFF	; 255
      f2:	e6 cf       	rjmp	.-52     	; 0xc0 <_ZL12to_upper_strPKcPch+0x4>
      f4:	fb 01       	movw	r30, r22
      f6:	e5 0f       	add	r30, r21
      f8:	f1 1d       	adc	r31, r1
      fa:	10 82       	st	Z, r1
      fc:	08 95       	ret

000000fe <_Z8adc_initv>:
      fe:	80 e4       	ldi	r24, 0x40	; 64
     100:	80 93 7c 00 	sts	0x007C, r24	; 0x80007c <__TEXT_REGION_LENGTH__+0x7f807c>
     104:	87 e8       	ldi	r24, 0x87	; 135
     106:	80 93 7a 00 	sts	0x007A, r24	; 0x80007a <__TEXT_REGION_LENGTH__+0x7f807a>
     10a:	08 95       	ret

0000010c <_Z8adc_readv>:
     10c:	ea e7       	ldi	r30, 0x7A	; 122
     10e:	f0 e0       	ldi	r31, 0x00	; 0
     110:	80 81       	ld	r24, Z
     112:	80 64       	ori	r24, 0x40	; 64
     114:	80 83       	st	Z, r24
     116:	80 91 7a 00 	lds	r24, 0x007A	; 0x80007a <__TEXT_REGION_LENGTH__+0x7f807a>
     11a:	86 fd       	sbrc	r24, 6
     11c:	fc cf       	rjmp	.-8      	; 0x116 <_Z8adc_readv+0xa>
     11e:	80 91 78 00 	lds	r24, 0x0078	; 0x800078 <__TEXT_REGION_LENGTH__+0x7f8078>
     122:	90 91 79 00 	lds	r25, 0x0079	; 0x800079 <__TEXT_REGION_LENGTH__+0x7f8079>
     126:	08 95       	ret

00000128 <_Z8pwm_initv>:
     128:	81 e2       	ldi	r24, 0x21	; 33
     12a:	84 bd       	out	0x24, r24	; 36
     12c:	81 e0       	ldi	r24, 0x01	; 1
     12e:	85 bd       	out	0x25, r24	; 37
     130:	8a b1       	in	r24, 0x0a	; 10
     132:	80 62       	ori	r24, 0x20	; 32
     134:	8a b9       	out	0x0a, r24	; 10
     136:	18 bc       	out	0x28, r1	; 40
     138:	08 95       	ret

0000013a <_Z18set_led_brightnessh>:
     13a:	80 93 9c 05 	sts	0x059C, r24	; 0x80059c <led_brightness>
     13e:	88 bd       	out	0x28, r24	; 40
     140:	08 95       	ret

00000142 <_Z8spi_initv>:
     142:	80 e5       	ldi	r24, 0x50	; 80
     144:	8c bd       	out	0x2c, r24	; 44
     146:	81 e0       	ldi	r24, 0x01	; 1
     148:	8d bd       	out	0x2d, r24	; 45
     14a:	84 b1       	in	r24, 0x04	; 4
     14c:	88 62       	ori	r24, 0x28	; 40
     14e:	84 b9       	out	0x04, r24	; 4
     150:	84 b1       	in	r24, 0x04	; 4
     152:	8f 7e       	andi	r24, 0xEF	; 239
     154:	84 b9       	out	0x04, r24	; 4
     156:	84 b1       	in	r24, 0x04	; 4
     158:	84 60       	ori	r24, 0x04	; 4
     15a:	84 b9       	out	0x04, r24	; 4
     15c:	84 b1       	in	r24, 0x04	; 4
     15e:	82 60       	ori	r24, 0x02	; 2
     160:	84 b9       	out	0x04, r24	; 4
     162:	84 b1       	in	r24, 0x04	; 4
     164:	81 60       	ori	r24, 0x01	; 1
     166:	84 b9       	out	0x04, r24	; 4
     168:	85 b1       	in	r24, 0x05	; 5
     16a:	84 60       	ori	r24, 0x04	; 4
     16c:	85 b9       	out	0x05, r24	; 5
     16e:	85 b1       	in	r24, 0x05	; 5
     170:	81 60       	ori	r24, 0x01	; 1
     172:	85 b9       	out	0x05, r24	; 5
     174:	08 95       	ret

00000176 <_Z9spi_writeh>:
     176:	8e bd       	out	0x2e, r24	; 46
     178:	0d b4       	in	r0, 0x2d	; 45
     17a:	07 fe       	sbrs	r0, 7
     17c:	fd cf       	rjmp	.-6      	; 0x178 <_Z9spi_writeh+0x2>
     17e:	08 95       	ret

00000180 <_Z16st7789_write_cmdh>:
     180:	95 b1       	in	r25, 0x05	; 5
     182:	9b 7f       	andi	r25, 0xFB	; 251
     184:	95 b9       	out	0x05, r25	; 5
     186:	95 b1       	in	r25, 0x05	; 5
     188:	9d 7f       	andi	r25, 0xFD	; 253
     18a:	95 b9       	out	0x05, r25	; 5
     18c:	0e 94 bb 00 	call	0x176	; 0x176 <_Z9spi_writeh>
     190:	85 b1       	in	r24, 0x05	; 5
     192:	84 60       	ori	r24, 0x04	; 4
     194:	85 b9       	out	0x05, r24	; 5
     196:	08 95       	ret

00000198 <_Z17st7789_write_datah>:
     198:	95 b1       	in	r25, 0x05	; 5
     19a:	9b 7f       	andi	r25, 0xFB	; 251
     19c:	95 b9       	out	0x05, r25	; 5
     19e:	95 b1       	in	r25, 0x05	; 5
     1a0:	92 60       	ori	r25, 0x02	; 2
     1a2:	95 b9       	out	0x05, r25	; 5
     1a4:	0e 94 bb 00 	call	0x176	; 0x176 <_Z9spi_writeh>
     1a8:	85 b1       	in	r24, 0x05	; 5
     1aa:	84 60       	ori	r24, 0x04	; 4
     1ac:	85 b9       	out	0x05, r24	; 5
     1ae:	08 95       	ret

000001b0 <_Z17st7789_set_windowjjjj>:
     1b0:	cf 92       	push	r12
     1b2:	df 92       	push	r13
     1b4:	ef 92       	push	r14
     1b6:	ff 92       	push	r15
     1b8:	0f 93       	push	r16
     1ba:	1f 93       	push	r17
     1bc:	cf 93       	push	r28
     1be:	df 93       	push	r29
     1c0:	d8 2e       	mov	r13, r24
     1c2:	c9 2e       	mov	r12, r25
     1c4:	16 2f       	mov	r17, r22
     1c6:	07 2f       	mov	r16, r23
     1c8:	f4 2e       	mov	r15, r20
     1ca:	e5 2e       	mov	r14, r21
     1cc:	c2 2f       	mov	r28, r18
     1ce:	d3 2f       	mov	r29, r19
     1d0:	8a e2       	ldi	r24, 0x2A	; 42
     1d2:	0e 94 c0 00 	call	0x180	; 0x180 <_Z16st7789_write_cmdh>
     1d6:	8c 2d       	mov	r24, r12
     1d8:	0e 94 cc 00 	call	0x198	; 0x198 <_Z17st7789_write_datah>
     1dc:	8d 2d       	mov	r24, r13
     1de:	0e 94 cc 00 	call	0x198	; 0x198 <_Z17st7789_write_datah>
     1e2:	8e 2d       	mov	r24, r14
     1e4:	0e 94 cc 00 	call	0x198	; 0x198 <_Z17st7789_write_datah>
     1e8:	8f 2d       	mov	r24, r15
     1ea:	0e 94 cc 00 	call	0x198	; 0x198 <_Z17st7789_write_datah>
     1ee:	8b e2       	ldi	r24, 0x2B	; 43
     1f0:	0e 94 c0 00 	call	0x180	; 0x180 <_Z16st7789_write_cmdh>
     1f4:	80 2f       	mov	r24, r16
     1f6:	0e 94 cc 00 	call	0x198	; 0x198 <_Z17st7789_write_datah>
     1fa:	81 2f       	mov	r24, r17
     1fc:	0e 94 cc 00 	call	0x198	; 0x198 <_Z17st7789_write_datah>
     200:	8d 2f       	mov	r24, r29
     202:	0e 94 cc 00 	call	0x198	; 0x198 <_Z17st7789_write_datah>
     206:	8c 2f       	mov	r24, r28
     208:	0e 94 cc 00 	call	0x198	; 0x198 <_Z17st7789_write_datah>
     20c:	8c e2       	ldi	r24, 0x2C	; 44
     20e:	0e 94 c0 00 	call	0x180	; 0x180 <_Z16st7789_write_cmdh>
     212:	df 91       	pop	r29
     214:	cf 91       	pop	r28
     216:	1f 91       	pop	r17
     218:	0f 91       	pop	r16
     21a:	ff 90       	pop	r15
     21c:	ef 90       	pop	r14
     21e:	df 90       	pop	r13
     220:	cf 90       	pop	r12
     222:	08 95       	ret

00000224 <_Z18st7789_fill_screenj>:
     224:	ef 92       	push	r14
     226:	ff 92       	push	r15
     228:	0f 93       	push	r16
     22a:	1f 93       	push	r17
     22c:	cf 93       	push	r28
     22e:	df 93       	push	r29
     230:	18 2f       	mov	r17, r24
     232:	09 2f       	mov	r16, r25
     234:	21 ed       	ldi	r18, 0xD1	; 209
     236:	30 e0       	ldi	r19, 0x00	; 0
     238:	4f e3       	ldi	r20, 0x3F	; 63
     23a:	51 e0       	ldi	r21, 0x01	; 1
     23c:	60 e0       	ldi	r22, 0x00	; 0
     23e:	70 e0       	ldi	r23, 0x00	; 0
     240:	80 e0       	ldi	r24, 0x00	; 0
     242:	90 e0       	ldi	r25, 0x00	; 0
     244:	0e 94 d8 00 	call	0x1b0	; 0x1b0 <_Z17st7789_set_windowjjjj>
     248:	85 b1       	in	r24, 0x05	; 5
     24a:	8b 7f       	andi	r24, 0xFB	; 251
     24c:	85 b9       	out	0x05, r24	; 5
     24e:	85 b1       	in	r24, 0x05	; 5
     250:	82 60       	ori	r24, 0x02	; 2
     252:	85 b9       	out	0x05, r24	; 5
     254:	e1 2c       	mov	r14, r1
     256:	f1 2c       	mov	r15, r1
     258:	82 ed       	ldi	r24, 0xD2	; 210
     25a:	e8 16       	cp	r14, r24
     25c:	f1 04       	cpc	r15, r1
     25e:	90 f4       	brcc	.+36     	; 0x284 <_Z18st7789_fill_screenj+0x60>
     260:	c0 e0       	ldi	r28, 0x00	; 0
     262:	d0 e0       	ldi	r29, 0x00	; 0
     264:	c0 34       	cpi	r28, 0x40	; 64
     266:	81 e0       	ldi	r24, 0x01	; 1
     268:	d8 07       	cpc	r29, r24
     26a:	40 f4       	brcc	.+16     	; 0x27c <_Z18st7789_fill_screenj+0x58>
     26c:	80 2f       	mov	r24, r16
     26e:	0e 94 bb 00 	call	0x176	; 0x176 <_Z9spi_writeh>
     272:	81 2f       	mov	r24, r17
     274:	0e 94 bb 00 	call	0x176	; 0x176 <_Z9spi_writeh>
     278:	21 96       	adiw	r28, 0x01	; 1
     27a:	f4 cf       	rjmp	.-24     	; 0x264 <_Z18st7789_fill_screenj+0x40>
     27c:	8f ef       	ldi	r24, 0xFF	; 255
     27e:	e8 1a       	sub	r14, r24
     280:	f8 0a       	sbc	r15, r24
     282:	ea cf       	rjmp	.-44     	; 0x258 <_Z18st7789_fill_screenj+0x34>
     284:	85 b1       	in	r24, 0x05	; 5
     286:	84 60       	ori	r24, 0x04	; 4
     288:	85 b9       	out	0x05, r24	; 5
     28a:	df 91       	pop	r29
     28c:	cf 91       	pop	r28
     28e:	1f 91       	pop	r17
     290:	0f 91       	pop	r16
     292:	ff 90       	pop	r15
     294:	ef 90       	pop	r14
     296:	08 95       	ret

00000298 <_Z16st7789_fill_rectjjjjj>:
     298:	cf 92       	push	r12
     29a:	df 92       	push	r13
     29c:	ef 92       	push	r14
     29e:	ff 92       	push	r15
     2a0:	0f 93       	push	r16
     2a2:	1f 93       	push	r17
     2a4:	cf 93       	push	r28
     2a6:	df 93       	push	r29
     2a8:	7a 01       	movw	r14, r20
     2aa:	69 01       	movw	r12, r18
     2ac:	9c 01       	movw	r18, r24
     2ae:	24 0f       	add	r18, r20
     2b0:	35 1f       	adc	r19, r21
     2b2:	21 34       	cpi	r18, 0x41	; 65
     2b4:	31 40       	sbci	r19, 0x01	; 1
     2b6:	28 f0       	brcs	.+10     	; 0x2c2 <_Z16st7789_fill_rectjjjjj+0x2a>
     2b8:	20 e4       	ldi	r18, 0x40	; 64
     2ba:	31 e0       	ldi	r19, 0x01	; 1
     2bc:	79 01       	movw	r14, r18
     2be:	e8 1a       	sub	r14, r24
     2c0:	f9 0a       	sbc	r15, r25
     2c2:	9b 01       	movw	r18, r22
     2c4:	2c 0d       	add	r18, r12
     2c6:	3d 1d       	adc	r19, r13
     2c8:	23 3d       	cpi	r18, 0xD3	; 211
     2ca:	31 05       	cpc	r19, r1
     2cc:	28 f0       	brcs	.+10     	; 0x2d8 <_Z16st7789_fill_rectjjjjj+0x40>
     2ce:	22 ed       	ldi	r18, 0xD2	; 210
     2d0:	30 e0       	ldi	r19, 0x00	; 0
     2d2:	69 01       	movw	r12, r18
     2d4:	c6 1a       	sub	r12, r22
     2d6:	d7 0a       	sbc	r13, r23
     2d8:	96 01       	movw	r18, r12
     2da:	26 0f       	add	r18, r22
     2dc:	37 1f       	adc	r19, r23
     2de:	21 50       	subi	r18, 0x01	; 1
     2e0:	31 09       	sbc	r19, r1
     2e2:	a7 01       	movw	r20, r14
     2e4:	48 0f       	add	r20, r24
     2e6:	59 1f       	adc	r21, r25
     2e8:	41 50       	subi	r20, 0x01	; 1
     2ea:	51 09       	sbc	r21, r1
     2ec:	0e 94 d8 00 	call	0x1b0	; 0x1b0 <_Z17st7789_set_windowjjjj>
     2f0:	85 b1       	in	r24, 0x05	; 5
     2f2:	8b 7f       	andi	r24, 0xFB	; 251
     2f4:	85 b9       	out	0x05, r24	; 5
     2f6:	85 b1       	in	r24, 0x05	; 5
     2f8:	82 60       	ori	r24, 0x02	; 2
     2fa:	85 b9       	out	0x05, r24	; 5
     2fc:	c0 e0       	ldi	r28, 0x00	; 0
     2fe:	d0 e0       	ldi	r29, 0x00	; 0
     300:	ec 9c       	mul	r14, r12
     302:	c0 01       	movw	r24, r0
     304:	ed 9c       	mul	r14, r13
     306:	90 0d       	add	r25, r0
     308:	fc 9c       	mul	r15, r12
     30a:	90 0d       	add	r25, r0
     30c:	11 24       	eor	r1, r1
     30e:	c8 17       	cp	r28, r24
     310:	d9 07       	cpc	r29, r25
     312:	40 f4       	brcc	.+16     	; 0x324 <_Z16st7789_fill_rectjjjjj+0x8c>
     314:	81 2f       	mov	r24, r17
     316:	0e 94 bb 00 	call	0x176	; 0x176 <_Z9spi_writeh>
     31a:	80 2f       	mov	r24, r16
     31c:	0e 94 bb 00 	call	0x176	; 0x176 <_Z9spi_writeh>
     320:	21 96       	adiw	r28, 0x01	; 1
     322:	ee cf       	rjmp	.-36     	; 0x300 <_Z16st7789_fill_rectjjjjj+0x68>
     324:	85 b1       	in	r24, 0x05	; 5
     326:	84 60       	ori	r24, 0x04	; 4
     328:	85 b9       	out	0x05, r24	; 5
     32a:	df 91       	pop	r29
     32c:	cf 91       	pop	r28
     32e:	1f 91       	pop	r17
     330:	0f 91       	pop	r16
     332:	ff 90       	pop	r15
     334:	ef 90       	pop	r14
     336:	df 90       	pop	r13
     338:	cf 90       	pop	r12
     33a:	08 95       	ret

0000033c <_Z16st7789_draw_charjjcjj>:
     33c:	6f 92       	push	r6
     33e:	7f 92       	push	r7
     340:	8f 92       	push	r8
     342:	9f 92       	push	r9
     344:	af 92       	push	r10
     346:	bf 92       	push	r11
     348:	cf 92       	push	r12
     34a:	df 92       	push	r13
     34c:	ef 92       	push	r14
     34e:	ff 92       	push	r15
     350:	0f 93       	push	r16
     352:	1f 93       	push	r17
     354:	cf 93       	push	r28
     356:	df 93       	push	r29
     358:	7c 01       	movw	r14, r24
     35a:	6b 01       	movw	r12, r22
     35c:	49 01       	movw	r8, r18
     35e:	58 01       	movw	r10, r16
     360:	40 32       	cpi	r20, 0x20	; 32
     362:	39 f4       	brne	.+14     	; 0x372 <_Z16st7789_draw_charjjcjj+0x36>
     364:	27 e0       	ldi	r18, 0x07	; 7
     366:	30 e0       	ldi	r19, 0x00	; 0
     368:	45 e0       	ldi	r20, 0x05	; 5
     36a:	50 e0       	ldi	r21, 0x00	; 0
     36c:	0e 94 4c 01 	call	0x298	; 0x298 <_Z16st7789_fill_rectjjjjj>
     370:	6b c0       	rjmp	.+214    	; 0x448 <__EEPROM_REGION_LENGTH__+0x48>
     372:	8f e9       	ldi	r24, 0x9F	; 159
     374:	84 0f       	add	r24, r20
     376:	8a 31       	cpi	r24, 0x1A	; 26
     378:	08 f4       	brcc	.+2      	; 0x37c <_Z16st7789_draw_charjjcjj+0x40>
     37a:	40 52       	subi	r20, 0x20	; 32
     37c:	88 e1       	ldi	r24, 0x18	; 24
     37e:	84 0f       	add	r24, r20
     380:	84 30       	cpi	r24, 0x04	; 4
     382:	88 f0       	brcs	.+34     	; 0x3a6 <_Z16st7789_draw_charjjcjj+0x6a>
     384:	80 e2       	ldi	r24, 0x20	; 32
     386:	84 0f       	add	r24, r20
     388:	84 30       	cpi	r24, 0x04	; 4
     38a:	78 f0       	brcs	.+30     	; 0x3aa <_Z16st7789_draw_charjjcjj+0x6e>
     38c:	87 e0       	ldi	r24, 0x07	; 7
     38e:	84 0f       	add	r24, r20
     390:	84 30       	cpi	r24, 0x04	; 4
     392:	68 f0       	brcs	.+26     	; 0x3ae <_Z16st7789_draw_charjjcjj+0x72>
     394:	84 e1       	ldi	r24, 0x14	; 20
     396:	84 0f       	add	r24, r20
     398:	84 30       	cpi	r24, 0x04	; 4
     39a:	58 f0       	brcs	.+22     	; 0x3b2 <_Z16st7789_draw_charjjcjj+0x76>
     39c:	8e e0       	ldi	r24, 0x0E	; 14
     39e:	84 0f       	add	r24, r20
     3a0:	84 30       	cpi	r24, 0x04	; 4
     3a2:	48 f0       	brcs	.+18     	; 0x3b6 <_Z16st7789_draw_charjjcjj+0x7a>
     3a4:	09 c0       	rjmp	.+18     	; 0x3b8 <_Z16st7789_draw_charjjcjj+0x7c>
     3a6:	45 e4       	ldi	r20, 0x45	; 69
     3a8:	07 c0       	rjmp	.+14     	; 0x3b8 <_Z16st7789_draw_charjjcjj+0x7c>
     3aa:	41 e4       	ldi	r20, 0x41	; 65
     3ac:	05 c0       	rjmp	.+10     	; 0x3b8 <_Z16st7789_draw_charjjcjj+0x7c>
     3ae:	45 e5       	ldi	r20, 0x55	; 85
     3b0:	03 c0       	rjmp	.+6      	; 0x3b8 <_Z16st7789_draw_charjjcjj+0x7c>
     3b2:	49 e4       	ldi	r20, 0x49	; 73
     3b4:	01 c0       	rjmp	.+2      	; 0x3b8 <_Z16st7789_draw_charjjcjj+0x7c>
     3b6:	4f e4       	ldi	r20, 0x4F	; 79
     3b8:	0f 2e       	mov	r0, r31
     3ba:	f0 ee       	ldi	r31, 0xE0	; 224
     3bc:	6f 2e       	mov	r6, r31
     3be:	f0 2d       	mov	r31, r0
     3c0:	64 0e       	add	r6, r20
     3c2:	8a e3       	ldi	r24, 0x3A	; 58
     3c4:	86 15       	cp	r24, r6
     3c6:	08 f4       	brcc	.+2      	; 0x3ca <_Z16st7789_draw_charjjcjj+0x8e>
     3c8:	3f c0       	rjmp	.+126    	; 0x448 <__EEPROM_REGION_LENGTH__+0x48>
     3ca:	86 15       	cp	r24, r6
     3cc:	e8 f1       	brcs	.+122    	; 0x448 <__EEPROM_REGION_LENGTH__+0x48>
     3ce:	d0 e0       	ldi	r29, 0x00	; 0
     3d0:	d5 30       	cpi	r29, 0x05	; 5
     3d2:	d0 f5       	brcc	.+116    	; 0x448 <__EEPROM_REGION_LENGTH__+0x48>
     3d4:	86 2d       	mov	r24, r6
     3d6:	90 e0       	ldi	r25, 0x00	; 0
     3d8:	fc 01       	movw	r30, r24
     3da:	ee 0f       	add	r30, r30
     3dc:	ff 1f       	adc	r31, r31
     3de:	ee 0f       	add	r30, r30
     3e0:	ff 1f       	adc	r31, r31
     3e2:	e8 0f       	add	r30, r24
     3e4:	f9 1f       	adc	r31, r25
     3e6:	e2 53       	subi	r30, 0x32	; 50
     3e8:	fc 4f       	sbci	r31, 0xFC	; 252
     3ea:	ed 0f       	add	r30, r29
     3ec:	f1 1d       	adc	r31, r1
     3ee:	70 80       	ld	r7, Z
     3f0:	c0 e0       	ldi	r28, 0x00	; 0
     3f2:	c7 30       	cpi	r28, 0x07	; 7
     3f4:	38 f5       	brcc	.+78     	; 0x444 <__EEPROM_REGION_LENGTH__+0x44>
     3f6:	87 2d       	mov	r24, r7
     3f8:	90 e0       	ldi	r25, 0x00	; 0
     3fa:	0c 2e       	mov	r0, r28
     3fc:	02 c0       	rjmp	.+4      	; 0x402 <__EEPROM_REGION_LENGTH__+0x2>
     3fe:	95 95       	asr	r25
     400:	87 95       	ror	r24
     402:	0a 94       	dec	r0
     404:	e2 f7       	brpl	.-8      	; 0x3fe <_Z16st7789_draw_charjjcjj+0xc2>
     406:	80 ff       	sbrs	r24, 0
     408:	0e c0       	rjmp	.+28     	; 0x426 <__EEPROM_REGION_LENGTH__+0x26>
     40a:	84 01       	movw	r16, r8
     40c:	21 e0       	ldi	r18, 0x01	; 1
     40e:	30 e0       	ldi	r19, 0x00	; 0
     410:	41 e0       	ldi	r20, 0x01	; 1
     412:	50 e0       	ldi	r21, 0x00	; 0
     414:	b6 01       	movw	r22, r12
     416:	6c 0f       	add	r22, r28
     418:	71 1d       	adc	r23, r1
     41a:	c7 01       	movw	r24, r14
     41c:	8d 0f       	add	r24, r29
     41e:	91 1d       	adc	r25, r1
     420:	0e 94 4c 01 	call	0x298	; 0x298 <_Z16st7789_fill_rectjjjjj>
     424:	0d c0       	rjmp	.+26     	; 0x440 <__EEPROM_REGION_LENGTH__+0x40>
     426:	85 01       	movw	r16, r10
     428:	21 e0       	ldi	r18, 0x01	; 1
     42a:	30 e0       	ldi	r19, 0x00	; 0
     42c:	41 e0       	ldi	r20, 0x01	; 1
     42e:	50 e0       	ldi	r21, 0x00	; 0
     430:	b6 01       	movw	r22, r12
     432:	6c 0f       	add	r22, r28
     434:	71 1d       	adc	r23, r1
     436:	c7 01       	movw	r24, r14
     438:	8d 0f       	add	r24, r29
     43a:	91 1d       	adc	r25, r1
     43c:	0e 94 4c 01 	call	0x298	; 0x298 <_Z16st7789_fill_rectjjjjj>
     440:	cf 5f       	subi	r28, 0xFF	; 255
     442:	d7 cf       	rjmp	.-82     	; 0x3f2 <_Z16st7789_draw_charjjcjj+0xb6>
     444:	df 5f       	subi	r29, 0xFF	; 255
     446:	c4 cf       	rjmp	.-120    	; 0x3d0 <_Z16st7789_draw_charjjcjj+0x94>
     448:	df 91       	pop	r29
     44a:	cf 91       	pop	r28
     44c:	1f 91       	pop	r17
     44e:	0f 91       	pop	r16
     450:	ff 90       	pop	r15
     452:	ef 90       	pop	r14
     454:	df 90       	pop	r13
     456:	cf 90       	pop	r12
     458:	bf 90       	pop	r11
     45a:	af 90       	pop	r10
     45c:	9f 90       	pop	r9
     45e:	8f 90       	pop	r8
     460:	7f 90       	pop	r7
     462:	6f 90       	pop	r6
     464:	08 95       	ret

00000466 <_Z16st7789_draw_textjjPKcjj>:
     466:	8f 92       	push	r8
     468:	9f 92       	push	r9
     46a:	af 92       	push	r10
     46c:	bf 92       	push	r11
     46e:	cf 92       	push	r12
     470:	df 92       	push	r13
     472:	ef 92       	push	r14
     474:	ff 92       	push	r15
     476:	0f 93       	push	r16
     478:	1f 93       	push	r17
     47a:	cf 93       	push	r28
     47c:	df 93       	push	r29
     47e:	7c 01       	movw	r14, r24
     480:	4b 01       	movw	r8, r22
     482:	ea 01       	movw	r28, r20
     484:	59 01       	movw	r10, r18
     486:	68 01       	movw	r12, r16
     488:	48 81       	ld	r20, Y
     48a:	44 23       	and	r20, r20
     48c:	59 f0       	breq	.+22     	; 0x4a4 <_Z16st7789_draw_textjjPKcjj+0x3e>
     48e:	86 01       	movw	r16, r12
     490:	95 01       	movw	r18, r10
     492:	b4 01       	movw	r22, r8
     494:	c7 01       	movw	r24, r14
     496:	0e 94 9e 01 	call	0x33c	; 0x33c <_Z16st7789_draw_charjjcjj>
     49a:	86 e0       	ldi	r24, 0x06	; 6
     49c:	e8 0e       	add	r14, r24
     49e:	f1 1c       	adc	r15, r1
     4a0:	21 96       	adiw	r28, 0x01	; 1
     4a2:	f2 cf       	rjmp	.-28     	; 0x488 <_Z16st7789_draw_textjjPKcjj+0x22>
     4a4:	df 91       	pop	r29
     4a6:	cf 91       	pop	r28
     4a8:	1f 91       	pop	r17
     4aa:	0f 91       	pop	r16
     4ac:	ff 90       	pop	r15
     4ae:	ef 90       	pop	r14
     4b0:	df 90       	pop	r13
     4b2:	cf 90       	pop	r12
     4b4:	bf 90       	pop	r11
     4b6:	af 90       	pop	r10
     4b8:	9f 90       	pop	r9
     4ba:	8f 90       	pop	r8
     4bc:	08 95       	ret

000004be <_Z21st7789_update_displayv>:
     4be:	0f 93       	push	r16
     4c0:	1f 93       	push	r17
     4c2:	cf 93       	push	r28
     4c4:	6b e5       	ldi	r22, 0x5B	; 91
     4c6:	71 e0       	ldi	r23, 0x01	; 1
     4c8:	88 e3       	ldi	r24, 0x38	; 56
     4ca:	91 e0       	ldi	r25, 0x01	; 1
     4cc:	0e 94 91 0c 	call	0x1922	; 0x1922 <strcmp>
     4d0:	89 2b       	or	r24, r25
     4d2:	09 f4       	brne	.+2      	; 0x4d6 <_Z21st7789_update_displayv+0x18>
     4d4:	50 c0       	rjmp	.+160    	; 0x576 <_Z21st7789_update_displayv+0xb8>
     4d6:	61 e6       	ldi	r22, 0x61	; 97
     4d8:	71 e0       	ldi	r23, 0x01	; 1
     4da:	88 e3       	ldi	r24, 0x38	; 56
     4dc:	91 e0       	ldi	r25, 0x01	; 1
     4de:	0e 94 91 0c 	call	0x1922	; 0x1922 <strcmp>
     4e2:	89 2b       	or	r24, r25
     4e4:	09 f4       	brne	.+2      	; 0x4e8 <_Z21st7789_update_displayv+0x2a>
     4e6:	47 c0       	rjmp	.+142    	; 0x576 <_Z21st7789_update_displayv+0xb8>
     4e8:	c0 e0       	ldi	r28, 0x00	; 0
     4ea:	c2 30       	cpi	r28, 0x02	; 2
     4ec:	60 f4       	brcc	.+24     	; 0x506 <_Z21st7789_update_displayv+0x48>
     4ee:	8f ef       	ldi	r24, 0xFF	; 255
     4f0:	9f ef       	ldi	r25, 0xFF	; 255
     4f2:	0e 94 12 01 	call	0x224	; 0x224 <_Z18st7789_fill_screenj>
     4f6:	83 ec       	ldi	r24, 0xC3	; 195
     4f8:	99 e0       	ldi	r25, 0x09	; 9
     4fa:	01 97       	sbiw	r24, 0x01	; 1
     4fc:	f1 f7       	brne	.-4      	; 0x4fa <_Z21st7789_update_displayv+0x3c>
     4fe:	00 c0       	rjmp	.+0      	; 0x500 <_Z21st7789_update_displayv+0x42>
     500:	00 00       	nop
     502:	cf 5f       	subi	r28, 0xFF	; 255
     504:	f2 cf       	rjmp	.-28     	; 0x4ea <_Z21st7789_update_displayv+0x2c>
     506:	0f ef       	ldi	r16, 0xFF	; 255
     508:	1f ef       	ldi	r17, 0xFF	; 255
     50a:	2f ef       	ldi	r18, 0xFF	; 255
     50c:	3f ef       	ldi	r19, 0xFF	; 255
     50e:	45 e6       	ldi	r20, 0x65	; 101
     510:	51 e0       	ldi	r21, 0x01	; 1
     512:	66 e9       	ldi	r22, 0x96	; 150
     514:	70 e0       	ldi	r23, 0x00	; 0
     516:	88 e2       	ldi	r24, 0x28	; 40
     518:	90 e0       	ldi	r25, 0x00	; 0
     51a:	0e 94 33 02 	call	0x466	; 0x466 <_Z16st7789_draw_textjjPKcjj>
     51e:	2f ef       	ldi	r18, 0xFF	; 255
     520:	3f ef       	ldi	r19, 0xFF	; 255
     522:	4a e9       	ldi	r20, 0x9A	; 154
     524:	51 e0       	ldi	r21, 0x01	; 1
     526:	62 ea       	ldi	r22, 0xA2	; 162
     528:	70 e0       	ldi	r23, 0x00	; 0
     52a:	88 e2       	ldi	r24, 0x28	; 40
     52c:	90 e0       	ldi	r25, 0x00	; 0
     52e:	0e 94 33 02 	call	0x466	; 0x466 <_Z16st7789_draw_textjjPKcjj>
     532:	6a e7       	ldi	r22, 0x7A	; 122
     534:	71 e0       	ldi	r23, 0x01	; 1
     536:	88 e0       	ldi	r24, 0x08	; 8
     538:	91 e0       	ldi	r25, 0x01	; 1
     53a:	0e 94 91 0c 	call	0x1922	; 0x1922 <strcmp>
     53e:	89 2b       	or	r24, r25
     540:	59 f0       	breq	.+22     	; 0x558 <_Z21st7789_update_displayv+0x9a>
     542:	6e e7       	ldi	r22, 0x7E	; 126
     544:	71 e0       	ldi	r23, 0x01	; 1
     546:	88 e0       	ldi	r24, 0x08	; 8
     548:	91 e0       	ldi	r25, 0x01	; 1
     54a:	0e 94 91 0c 	call	0x1922	; 0x1922 <strcmp>
     54e:	89 2b       	or	r24, r25
     550:	31 f0       	breq	.+12     	; 0x55e <_Z21st7789_update_displayv+0xa0>
     552:	4c e4       	ldi	r20, 0x4C	; 76
     554:	51 e0       	ldi	r21, 0x01	; 1
     556:	05 c0       	rjmp	.+10     	; 0x562 <_Z21st7789_update_displayv+0xa4>
     558:	48 e4       	ldi	r20, 0x48	; 72
     55a:	51 e0       	ldi	r21, 0x01	; 1
     55c:	02 c0       	rjmp	.+4      	; 0x562 <_Z21st7789_update_displayv+0xa4>
     55e:	41 e5       	ldi	r20, 0x51	; 81
     560:	51 e0       	ldi	r21, 0x01	; 1
     562:	0f ef       	ldi	r16, 0xFF	; 255
     564:	1f ef       	ldi	r17, 0xFF	; 255
     566:	2f ef       	ldi	r18, 0xFF	; 255
     568:	3f ef       	ldi	r19, 0xFF	; 255
     56a:	62 ea       	ldi	r22, 0xA2	; 162
     56c:	70 e0       	ldi	r23, 0x00	; 0
     56e:	86 e7       	ldi	r24, 0x76	; 118
     570:	90 e0       	ldi	r25, 0x00	; 0
     572:	0e 94 33 02 	call	0x466	; 0x466 <_Z16st7789_draw_textjjPKcjj>
     576:	cf 91       	pop	r28
     578:	1f 91       	pop	r17
     57a:	0f 91       	pop	r16
     57c:	08 95       	ret

0000057e <_Z9uart_initv>:
     57e:	8f ef       	ldi	r24, 0xFF	; 255
     580:	80 93 c5 00 	sts	0x00C5, r24	; 0x8000c5 <__TEXT_REGION_LENGTH__+0x7f80c5>
     584:	80 93 c4 00 	sts	0x00C4, r24	; 0x8000c4 <__TEXT_REGION_LENGTH__+0x7f80c4>
     588:	88 e9       	ldi	r24, 0x98	; 152
     58a:	80 93 c1 00 	sts	0x00C1, r24	; 0x8000c1 <__TEXT_REGION_LENGTH__+0x7f80c1>
     58e:	86 e0       	ldi	r24, 0x06	; 6
     590:	80 93 c2 00 	sts	0x00C2, r24	; 0x8000c2 <__TEXT_REGION_LENGTH__+0x7f80c2>
     594:	08 95       	ret

00000596 <_Z18display_init_panelv>:
#define WHITE_COL 0xFFFF
#define BLACK_COL 0x0000
#define CONTENT_HEIGHT (ZONE_LINE_H + 2 + 1 + 2 + (7 * ZONE_LINE_H))  // 133

// Dessiner le panneau statique une seule fois (fond, bordures, séparateur)
void display_init_panel(void) {
     596:	0f 93       	push	r16
     598:	1f 93       	push	r17
    st7789_fill_screen(BLACK_COL);
     59a:	80 e0       	ldi	r24, 0x00	; 0
     59c:	90 e0       	ldi	r25, 0x00	; 0
     59e:	0e 94 12 01 	call	0x224	; 0x224 <_Z18st7789_fill_screenj>
    st7789_fill_rect(PANEL_X, PANEL_Y, PANEL_W, PANEL_H, INNER_BG);
     5a2:	02 e8       	ldi	r16, 0x82	; 130
     5a4:	10 e1       	ldi	r17, 0x10	; 16
     5a6:	2f ea       	ldi	r18, 0xAF	; 175
     5a8:	30 e0       	ldi	r19, 0x00	; 0
     5aa:	46 e3       	ldi	r20, 0x36	; 54
     5ac:	51 e0       	ldi	r21, 0x01	; 1
     5ae:	6e e1       	ldi	r22, 0x1E	; 30
     5b0:	70 e0       	ldi	r23, 0x00	; 0
     5b2:	85 e0       	ldi	r24, 0x05	; 5
     5b4:	90 e0       	ldi	r25, 0x00	; 0
     5b6:	0e 94 4c 01 	call	0x298	; 0x298 <_Z16st7789_fill_rectjjjjj>
    st7789_fill_rect(PANEL_X, PANEL_Y, PANEL_W, 1, BORDER_GRAY);
     5ba:	00 e1       	ldi	r16, 0x10	; 16
     5bc:	14 e8       	ldi	r17, 0x84	; 132
     5be:	21 e0       	ldi	r18, 0x01	; 1
     5c0:	30 e0       	ldi	r19, 0x00	; 0
     5c2:	46 e3       	ldi	r20, 0x36	; 54
     5c4:	51 e0       	ldi	r21, 0x01	; 1
     5c6:	6e e1       	ldi	r22, 0x1E	; 30
     5c8:	70 e0       	ldi	r23, 0x00	; 0
     5ca:	85 e0       	ldi	r24, 0x05	; 5
     5cc:	90 e0       	ldi	r25, 0x00	; 0
     5ce:	0e 94 4c 01 	call	0x298	; 0x298 <_Z16st7789_fill_rectjjjjj>
    st7789_fill_rect(PANEL_X, PANEL_Y + PANEL_H - 1, PANEL_W, 1, BORDER_GRAY);
     5d2:	21 e0       	ldi	r18, 0x01	; 1
     5d4:	30 e0       	ldi	r19, 0x00	; 0
     5d6:	46 e3       	ldi	r20, 0x36	; 54
     5d8:	51 e0       	ldi	r21, 0x01	; 1
     5da:	6c ec       	ldi	r22, 0xCC	; 204
     5dc:	70 e0       	ldi	r23, 0x00	; 0
     5de:	85 e0       	ldi	r24, 0x05	; 5
     5e0:	90 e0       	ldi	r25, 0x00	; 0
     5e2:	0e 94 4c 01 	call	0x298	; 0x298 <_Z16st7789_fill_rectjjjjj>
    st7789_fill_rect(PANEL_X, PANEL_Y, 1, PANEL_H, BORDER_GRAY);
     5e6:	2f ea       	ldi	r18, 0xAF	; 175
     5e8:	30 e0       	ldi	r19, 0x00	; 0
     5ea:	41 e0       	ldi	r20, 0x01	; 1
     5ec:	50 e0       	ldi	r21, 0x00	; 0
     5ee:	6e e1       	ldi	r22, 0x1E	; 30
     5f0:	70 e0       	ldi	r23, 0x00	; 0
     5f2:	85 e0       	ldi	r24, 0x05	; 5
     5f4:	90 e0       	ldi	r25, 0x00	; 0
     5f6:	0e 94 4c 01 	call	0x298	; 0x298 <_Z16st7789_fill_rectjjjjj>
    st7789_fill_rect(PANEL_X + PANEL_W - 1, PANEL_Y, 1, PANEL_H, BORDER_GRAY);
     5fa:	2f ea       	ldi	r18, 0xAF	; 175
     5fc:	30 e0       	ldi	r19, 0x00	; 0
     5fe:	41 e0       	ldi	r20, 0x01	; 1
     600:	50 e0       	ldi	r21, 0x00	; 0
     602:	6e e1       	ldi	r22, 0x1E	; 30
     604:	70 e0       	ldi	r23, 0x00	; 0
     606:	8a e3       	ldi	r24, 0x3A	; 58
     608:	91 e0       	ldi	r25, 0x01	; 1
     60a:	0e 94 4c 01 	call	0x298	; 0x298 <_Z16st7789_fill_rectjjjjj>
    uint16_t sep_y = PANEL_Y + ((PANEL_H - CONTENT_HEIGHT) / 2) + 1 + ZONE_LINE_H + 2;
    st7789_fill_rect(ZONE_X, sep_y, ZONE_W, 1, BORDER_GRAY);
     60e:	21 e0       	ldi	r18, 0x01	; 1
     610:	30 e0       	ldi	r19, 0x00	; 0
     612:	48 e1       	ldi	r20, 0x18	; 24
     614:	51 e0       	ldi	r21, 0x01	; 1
     616:	66 e4       	ldi	r22, 0x46	; 70
     618:	70 e0       	ldi	r23, 0x00	; 0
     61a:	84 e1       	ldi	r24, 0x14	; 20
     61c:	90 e0       	ldi	r25, 0x00	; 0
     61e:	0e 94 4c 01 	call	0x298	; 0x298 <_Z16st7789_fill_rectjjjjj>
}
     622:	1f 91       	pop	r17
     624:	0f 91       	pop	r16
     626:	08 95       	ret

00000628 <_Z22display_update_partialh>:
    out[i] = '\0';
}

// Mise à jour partielle: ne redessine que les zones dont la valeur a changé
// force_key_device=1: force toujours la mise à jour des zones dernière touche et appareil
void display_update_partial(uint8_t force_key_device) {
     628:	ff 92       	push	r15
     62a:	0f 93       	push	r16
     62c:	1f 93       	push	r17
     62e:	cf 93       	push	r28
     630:	df 93       	push	r29
     632:	cd b7       	in	r28, 0x3d	; 61
     634:	de b7       	in	r29, 0x3e	; 62
     636:	e5 97       	sbiw	r28, 0x35	; 53
     638:	0f b6       	in	r0, 0x3f	; 63
     63a:	f8 94       	cli
     63c:	de bf       	out	0x3e, r29	; 62
     63e:	0f be       	out	0x3f, r0	; 63
     640:	cd bf       	out	0x3d, r28	; 61
     642:	f8 2e       	mov	r15, r24
    static uint8_t prev_backlight_enabled = 255;
    static uint16_t prev_light_level = 0xFFFF;
    
    uint16_t start_y = PANEL_Y + ((PANEL_H - CONTENT_HEIGHT) / 2) + 1;
    
    if (!panel_drawn) {
     644:	80 91 56 05 	lds	r24, 0x0556	; 0x800556 <_ZZ22display_update_partialhE11panel_drawn>
     648:	81 11       	cpse	r24, r1
     64a:	05 c0       	rjmp	.+10     	; 0x656 <_Z22display_update_partialh+0x2e>
        display_init_panel();
     64c:	0e 94 cb 02 	call	0x596	; 0x596 <_Z18display_init_panelv>
        panel_drawn = 1;
     650:	81 e0       	ldi	r24, 0x01	; 1
     652:	80 93 56 05 	sts	0x0556, r24	; 0x800556 <_ZZ22display_update_partialhE11panel_drawn>
    uint8_t pos;
    const char* p;
    
    // Zone 1: Profil
    const char* profile_ptr = (char*)display_profile;
    if (!profile_ptr || !profile_ptr[0]) profile_ptr = "Profile 1";
     656:	80 91 18 01 	lds	r24, 0x0118	; 0x800118 <display_profile>
     65a:	88 23       	and	r24, r24
     65c:	19 f0       	breq	.+6      	; 0x664 <_Z22display_update_partialh+0x3c>
    char buf[48];
    uint8_t pos;
    const char* p;
    
    // Zone 1: Profil
    const char* profile_ptr = (char*)display_profile;
     65e:	08 e1       	ldi	r16, 0x18	; 24
     660:	11 e0       	ldi	r17, 0x01	; 1
     662:	02 c0       	rjmp	.+4      	; 0x668 <_Z22display_update_partialh+0x40>
    if (!profile_ptr || !profile_ptr[0]) profile_ptr = "Profile 1";
     664:	08 e8       	ldi	r16, 0x88	; 136
     666:	11 e0       	ldi	r17, 0x01	; 1
    if (strcmp(profile_ptr, prev_profile) != 0) {
     668:	66 e3       	ldi	r22, 0x36	; 54
     66a:	75 e0       	ldi	r23, 0x05	; 5
     66c:	c8 01       	movw	r24, r16
     66e:	0e 94 91 0c 	call	0x1922	; 0x1922 <strcmp>
     672:	89 2b       	or	r24, r25
     674:	39 f1       	breq	.+78     	; 0x6c4 <_Z22display_update_partialh+0x9c>
        strncpy((char*)prev_profile, profile_ptr, 31);
     676:	4f e1       	ldi	r20, 0x1F	; 31
     678:	50 e0       	ldi	r21, 0x00	; 0
     67a:	b8 01       	movw	r22, r16
     67c:	86 e3       	ldi	r24, 0x36	; 54
     67e:	95 e0       	ldi	r25, 0x05	; 5
     680:	0e 94 9a 0c 	call	0x1934	; 0x1934 <strncpy>
        prev_profile[31] = '\0';
     684:	10 92 55 05 	sts	0x0555, r1	; 0x800555 <_ZZ22display_update_partialhE12prev_profile+0x1f>
        to_upper_str(profile_ptr, buf, sizeof(buf));
     688:	40 e3       	ldi	r20, 0x30	; 48
     68a:	be 01       	movw	r22, r28
     68c:	6f 5f       	subi	r22, 0xFF	; 255
     68e:	7f 4f       	sbci	r23, 0xFF	; 255
     690:	c8 01       	movw	r24, r16
     692:	0e 94 5e 00 	call	0xbc	; 0xbc <_ZL12to_upper_strPKcPch>
        st7789_fill_rect(ZONE_X, y_profile, ZONE_W, ZONE_LINE_H, INNER_BG);
     696:	02 e8       	ldi	r16, 0x82	; 130
     698:	10 e1       	ldi	r17, 0x10	; 16
     69a:	20 e1       	ldi	r18, 0x10	; 16
     69c:	30 e0       	ldi	r19, 0x00	; 0
     69e:	48 e1       	ldi	r20, 0x18	; 24
     6a0:	51 e0       	ldi	r21, 0x01	; 1
     6a2:	64 e3       	ldi	r22, 0x34	; 52
     6a4:	70 e0       	ldi	r23, 0x00	; 0
     6a6:	84 e1       	ldi	r24, 0x14	; 20
     6a8:	90 e0       	ldi	r25, 0x00	; 0
     6aa:	0e 94 4c 01 	call	0x298	; 0x298 <_Z16st7789_fill_rectjjjjj>
        st7789_draw_text(ZONE_X, y_profile, buf, WHITE_COL, INNER_BG);
     6ae:	2f ef       	ldi	r18, 0xFF	; 255
     6b0:	3f ef       	ldi	r19, 0xFF	; 255
     6b2:	ae 01       	movw	r20, r28
     6b4:	4f 5f       	subi	r20, 0xFF	; 255
     6b6:	5f 4f       	sbci	r21, 0xFF	; 255
     6b8:	64 e3       	ldi	r22, 0x34	; 52
     6ba:	70 e0       	ldi	r23, 0x00	; 0
     6bc:	84 e1       	ldi	r24, 0x14	; 20
     6be:	90 e0       	ldi	r25, 0x00	; 0
     6c0:	0e 94 33 02 	call	0x466	; 0x466 <_Z16st7789_draw_textjjPKcjj>
    }
    
    // Zone 2: Mode de connexion
    const char* conn_status = "IDLE";
    if (strcmp((char*)display_output_mode, "usb") == 0) conn_status = "USB";
     6c4:	6a e7       	ldi	r22, 0x7A	; 122
     6c6:	71 e0       	ldi	r23, 0x01	; 1
     6c8:	88 e0       	ldi	r24, 0x08	; 8
     6ca:	91 e0       	ldi	r25, 0x01	; 1
     6cc:	0e 94 91 0c 	call	0x1922	; 0x1922 <strcmp>
     6d0:	89 2b       	or	r24, r25
     6d2:	59 f0       	breq	.+22     	; 0x6ea <_Z22display_update_partialh+0xc2>
    else if (strcmp((char*)display_output_mode, "bluetooth") == 0) conn_status = "BLUETOOTH";
     6d4:	6e e7       	ldi	r22, 0x7E	; 126
     6d6:	71 e0       	ldi	r23, 0x01	; 1
     6d8:	88 e0       	ldi	r24, 0x08	; 8
     6da:	91 e0       	ldi	r25, 0x01	; 1
     6dc:	0e 94 91 0c 	call	0x1922	; 0x1922 <strcmp>
     6e0:	89 2b       	or	r24, r25
     6e2:	31 f0       	breq	.+12     	; 0x6f0 <_Z22display_update_partialh+0xc8>
        st7789_fill_rect(ZONE_X, y_profile, ZONE_W, ZONE_LINE_H, INNER_BG);
        st7789_draw_text(ZONE_X, y_profile, buf, WHITE_COL, INNER_BG);
    }
    
    // Zone 2: Mode de connexion
    const char* conn_status = "IDLE";
     6e4:	0c e4       	ldi	r16, 0x4C	; 76
     6e6:	11 e0       	ldi	r17, 0x01	; 1
     6e8:	05 c0       	rjmp	.+10     	; 0x6f4 <_Z22display_update_partialh+0xcc>
    if (strcmp((char*)display_output_mode, "usb") == 0) conn_status = "USB";
     6ea:	08 e4       	ldi	r16, 0x48	; 72
     6ec:	11 e0       	ldi	r17, 0x01	; 1
     6ee:	02 c0       	rjmp	.+4      	; 0x6f4 <_Z22display_update_partialh+0xcc>
    else if (strcmp((char*)display_output_mode, "bluetooth") == 0) conn_status = "BLUETOOTH";
     6f0:	01 e5       	ldi	r16, 0x51	; 81
     6f2:	11 e0       	ldi	r17, 0x01	; 1
    if (strcmp((char*)display_output_mode, prev_output_mode) != 0) {
     6f4:	66 e2       	ldi	r22, 0x26	; 38
     6f6:	75 e0       	ldi	r23, 0x05	; 5
     6f8:	88 e0       	ldi	r24, 0x08	; 8
     6fa:	91 e0       	ldi	r25, 0x01	; 1
     6fc:	0e 94 91 0c 	call	0x1922	; 0x1922 <strcmp>
     700:	89 2b       	or	r24, r25
     702:	09 f4       	brne	.+2      	; 0x706 <_Z22display_update_partialh+0xde>
     704:	4b c0       	rjmp	.+150    	; 0x79c <_Z22display_update_partialh+0x174>
        strncpy((char*)prev_output_mode, (char*)display_output_mode, 15);
     706:	4f e0       	ldi	r20, 0x0F	; 15
     708:	50 e0       	ldi	r21, 0x00	; 0
     70a:	68 e0       	ldi	r22, 0x08	; 8
     70c:	71 e0       	ldi	r23, 0x01	; 1
     70e:	86 e2       	ldi	r24, 0x26	; 38
     710:	95 e0       	ldi	r25, 0x05	; 5
     712:	0e 94 9a 0c 	call	0x1934	; 0x1934 <strncpy>
        prev_output_mode[15] = '\0';
     716:	10 92 35 05 	sts	0x0535, r1	; 0x800535 <_ZZ22display_update_partialhE16prev_output_mode+0xf>
        pos = 0;
        p = "MODE DE CONNECTION : ";
     71a:	a2 e9       	ldi	r26, 0x92	; 146
     71c:	b1 e0       	ldi	r27, 0x01	; 1
    if (strcmp((char*)display_output_mode, "usb") == 0) conn_status = "USB";
    else if (strcmp((char*)display_output_mode, "bluetooth") == 0) conn_status = "BLUETOOTH";
    if (strcmp((char*)display_output_mode, prev_output_mode) != 0) {
        strncpy((char*)prev_output_mode, (char*)display_output_mode, 15);
        prev_output_mode[15] = '\0';
        pos = 0;
     71e:	80 e0       	ldi	r24, 0x00	; 0
        p = "MODE DE CONNECTION : ";
        while (*p && pos < 47) buf[pos++] = *p++;
     720:	9c 91       	ld	r25, X
     722:	99 23       	and	r25, r25
     724:	61 f0       	breq	.+24     	; 0x73e <_Z22display_update_partialh+0x116>
     726:	8f 32       	cpi	r24, 0x2F	; 47
     728:	50 f4       	brcc	.+20     	; 0x73e <_Z22display_update_partialh+0x116>
     72a:	11 96       	adiw	r26, 0x01	; 1
     72c:	e1 e0       	ldi	r30, 0x01	; 1
     72e:	f0 e0       	ldi	r31, 0x00	; 0
     730:	ec 0f       	add	r30, r28
     732:	fd 1f       	adc	r31, r29
     734:	e8 0f       	add	r30, r24
     736:	f1 1d       	adc	r31, r1
     738:	90 83       	st	Z, r25
     73a:	8f 5f       	subi	r24, 0xFF	; 255
     73c:	f1 cf       	rjmp	.-30     	; 0x720 <_Z22display_update_partialh+0xf8>
        p = conn_status;
        while (*p && pos < 47) buf[pos++] = *p++;
     73e:	f8 01       	movw	r30, r16
     740:	90 81       	ld	r25, Z
     742:	99 23       	and	r25, r25
     744:	69 f0       	breq	.+26     	; 0x760 <_Z22display_update_partialh+0x138>
     746:	8f 32       	cpi	r24, 0x2F	; 47
     748:	58 f4       	brcc	.+22     	; 0x760 <_Z22display_update_partialh+0x138>
     74a:	0f 5f       	subi	r16, 0xFF	; 255
     74c:	1f 4f       	sbci	r17, 0xFF	; 255
     74e:	e1 e0       	ldi	r30, 0x01	; 1
     750:	f0 e0       	ldi	r31, 0x00	; 0
     752:	ec 0f       	add	r30, r28
     754:	fd 1f       	adc	r31, r29
     756:	e8 0f       	add	r30, r24
     758:	f1 1d       	adc	r31, r1
     75a:	90 83       	st	Z, r25
     75c:	8f 5f       	subi	r24, 0xFF	; 255
     75e:	ef cf       	rjmp	.-34     	; 0x73e <_Z22display_update_partialh+0x116>
        buf[pos] = '\0';
     760:	e1 e0       	ldi	r30, 0x01	; 1
     762:	f0 e0       	ldi	r31, 0x00	; 0
     764:	ec 0f       	add	r30, r28
     766:	fd 1f       	adc	r31, r29
     768:	e8 0f       	add	r30, r24
     76a:	f1 1d       	adc	r31, r1
     76c:	10 82       	st	Z, r1
        st7789_fill_rect(ZONE_X, y_mode, ZONE_W, ZONE_LINE_H, INNER_BG);
     76e:	02 e8       	ldi	r16, 0x82	; 130
     770:	10 e1       	ldi	r17, 0x10	; 16
     772:	20 e1       	ldi	r18, 0x10	; 16
     774:	30 e0       	ldi	r19, 0x00	; 0
     776:	48 e1       	ldi	r20, 0x18	; 24
     778:	51 e0       	ldi	r21, 0x01	; 1
     77a:	69 e4       	ldi	r22, 0x49	; 73
     77c:	70 e0       	ldi	r23, 0x00	; 0
     77e:	84 e1       	ldi	r24, 0x14	; 20
     780:	90 e0       	ldi	r25, 0x00	; 0
     782:	0e 94 4c 01 	call	0x298	; 0x298 <_Z16st7789_fill_rectjjjjj>
        st7789_draw_text(ZONE_X, y_mode, buf, WHITE_COL, INNER_BG);
     786:	2f ef       	ldi	r18, 0xFF	; 255
     788:	3f ef       	ldi	r19, 0xFF	; 255
     78a:	ae 01       	movw	r20, r28
     78c:	4f 5f       	subi	r20, 0xFF	; 255
     78e:	5f 4f       	sbci	r21, 0xFF	; 255
     790:	69 e4       	ldi	r22, 0x49	; 73
     792:	70 e0       	ldi	r23, 0x00	; 0
     794:	84 e1       	ldi	r24, 0x14	; 20
     796:	90 e0       	ldi	r25, 0x00	; 0
     798:	0e 94 33 02 	call	0x466	; 0x466 <_Z16st7789_draw_textjjPKcjj>
    }
    
    // Zone 3: Appareil connecté (fallback: déduire de display_output_mode si vide)
    const char* device_ptr = (char*)display_connected_device;
    if (!device_ptr || !device_ptr[0]) {
     79c:	80 91 61 05 	lds	r24, 0x0561	; 0x800561 <display_connected_device>
     7a0:	81 11       	cpse	r24, r1
     7a2:	0b c0       	rjmp	.+22     	; 0x7ba <_Z22display_update_partialh+0x192>
        device_ptr = (strcmp((char*)display_output_mode, "bluetooth") == 0) ? "Bluetooth" : "Wired";
     7a4:	6e e7       	ldi	r22, 0x7E	; 126
     7a6:	71 e0       	ldi	r23, 0x01	; 1
     7a8:	88 e0       	ldi	r24, 0x08	; 8
     7aa:	91 e0       	ldi	r25, 0x01	; 1
     7ac:	0e 94 91 0c 	call	0x1922	; 0x1922 <strcmp>
     7b0:	89 2b       	or	r24, r25
     7b2:	31 f4       	brne	.+12     	; 0x7c0 <_Z22display_update_partialh+0x198>
     7b4:	0e ea       	ldi	r16, 0xAE	; 174
     7b6:	11 e0       	ldi	r17, 0x01	; 1
     7b8:	05 c0       	rjmp	.+10     	; 0x7c4 <_Z22display_update_partialh+0x19c>
        st7789_fill_rect(ZONE_X, y_mode, ZONE_W, ZONE_LINE_H, INNER_BG);
        st7789_draw_text(ZONE_X, y_mode, buf, WHITE_COL, INNER_BG);
    }
    
    // Zone 3: Appareil connecté (fallback: déduire de display_output_mode si vide)
    const char* device_ptr = (char*)display_connected_device;
     7ba:	01 e6       	ldi	r16, 0x61	; 97
     7bc:	15 e0       	ldi	r17, 0x05	; 5
     7be:	02 c0       	rjmp	.+4      	; 0x7c4 <_Z22display_update_partialh+0x19c>
    if (!device_ptr || !device_ptr[0]) {
        device_ptr = (strcmp((char*)display_output_mode, "bluetooth") == 0) ? "Bluetooth" : "Wired";
     7c0:	08 ea       	ldi	r16, 0xA8	; 168
     7c2:	11 e0       	ldi	r17, 0x01	; 1
    }
    if (force_key_device || strcmp(device_ptr, prev_connected_device) != 0) {
     7c4:	f1 10       	cpse	r15, r1
     7c6:	08 c0       	rjmp	.+16     	; 0x7d8 <_Z22display_update_partialh+0x1b0>
     7c8:	66 e0       	ldi	r22, 0x06	; 6
     7ca:	75 e0       	ldi	r23, 0x05	; 5
     7cc:	c8 01       	movw	r24, r16
     7ce:	0e 94 91 0c 	call	0x1922	; 0x1922 <strcmp>
     7d2:	89 2b       	or	r24, r25
     7d4:	09 f4       	brne	.+2      	; 0x7d8 <_Z22display_update_partialh+0x1b0>
     7d6:	4f c0       	rjmp	.+158    	; 0x876 <__DATA_REGION_LENGTH__+0x76>
        strncpy((char*)prev_connected_device, device_ptr, 31);
     7d8:	4f e1       	ldi	r20, 0x1F	; 31
     7da:	50 e0       	ldi	r21, 0x00	; 0
     7dc:	b8 01       	movw	r22, r16
     7de:	86 e0       	ldi	r24, 0x06	; 6
     7e0:	95 e0       	ldi	r25, 0x05	; 5
     7e2:	0e 94 9a 0c 	call	0x1934	; 0x1934 <strncpy>
        prev_connected_device[31] = '\0';
     7e6:	10 92 25 05 	sts	0x0525, r1	; 0x800525 <_ZZ22display_update_partialhE21prev_connected_device+0x1f>
        pos = 0;
        p = "APPAREIL : ";
     7ea:	a8 eb       	ldi	r26, 0xB8	; 184
     7ec:	b1 e0       	ldi	r27, 0x01	; 1
        device_ptr = (strcmp((char*)display_output_mode, "bluetooth") == 0) ? "Bluetooth" : "Wired";
    }
    if (force_key_device || strcmp(device_ptr, prev_connected_device) != 0) {
        strncpy((char*)prev_connected_device, device_ptr, 31);
        prev_connected_device[31] = '\0';
        pos = 0;
     7ee:	80 e0       	ldi	r24, 0x00	; 0
        p = "APPAREIL : ";
        while (*p && pos < 47) buf[pos++] = *p++;
     7f0:	9c 91       	ld	r25, X
     7f2:	99 23       	and	r25, r25
     7f4:	61 f0       	breq	.+24     	; 0x80e <__DATA_REGION_LENGTH__+0xe>
     7f6:	8f 32       	cpi	r24, 0x2F	; 47
     7f8:	50 f4       	brcc	.+20     	; 0x80e <__DATA_REGION_LENGTH__+0xe>
     7fa:	11 96       	adiw	r26, 0x01	; 1
     7fc:	e1 e0       	ldi	r30, 0x01	; 1
     7fe:	f0 e0       	ldi	r31, 0x00	; 0
     800:	ec 0f       	add	r30, r28
     802:	fd 1f       	adc	r31, r29
     804:	e8 0f       	add	r30, r24
     806:	f1 1d       	adc	r31, r1
     808:	90 83       	st	Z, r25
     80a:	8f 5f       	subi	r24, 0xFF	; 255
     80c:	f1 cf       	rjmp	.-30     	; 0x7f0 <_Z22display_update_partialh+0x1c8>
        p = device_ptr;
        while (*p && pos < 47) {
     80e:	f8 01       	movw	r30, r16
     810:	90 81       	ld	r25, Z
     812:	99 23       	and	r25, r25
     814:	91 f0       	breq	.+36     	; 0x83a <__DATA_REGION_LENGTH__+0x3a>
     816:	8f 32       	cpi	r24, 0x2F	; 47
     818:	80 f4       	brcc	.+32     	; 0x83a <__DATA_REGION_LENGTH__+0x3a>
            char c = *p++;
     81a:	0f 5f       	subi	r16, 0xFF	; 255
     81c:	1f 4f       	sbci	r17, 0xFF	; 255
            if (c >= 'a' && c <= 'z') c = c - 'a' + 'A';
     81e:	2f e9       	ldi	r18, 0x9F	; 159
     820:	29 0f       	add	r18, r25
     822:	2a 31       	cpi	r18, 0x1A	; 26
     824:	08 f4       	brcc	.+2      	; 0x828 <__DATA_REGION_LENGTH__+0x28>
     826:	90 52       	subi	r25, 0x20	; 32
            buf[pos++] = c;
     828:	e1 e0       	ldi	r30, 0x01	; 1
     82a:	f0 e0       	ldi	r31, 0x00	; 0
     82c:	ec 0f       	add	r30, r28
     82e:	fd 1f       	adc	r31, r29
     830:	e8 0f       	add	r30, r24
     832:	f1 1d       	adc	r31, r1
     834:	90 83       	st	Z, r25
     836:	8f 5f       	subi	r24, 0xFF	; 255
        prev_connected_device[31] = '\0';
        pos = 0;
        p = "APPAREIL : ";
        while (*p && pos < 47) buf[pos++] = *p++;
        p = device_ptr;
        while (*p && pos < 47) {
     838:	ea cf       	rjmp	.-44     	; 0x80e <__DATA_REGION_LENGTH__+0xe>
            char c = *p++;
            if (c >= 'a' && c <= 'z') c = c - 'a' + 'A';
            buf[pos++] = c;
        }
        buf[pos] = '\0';
     83a:	e1 e0       	ldi	r30, 0x01	; 1
     83c:	f0 e0       	ldi	r31, 0x00	; 0
     83e:	ec 0f       	add	r30, r28
     840:	fd 1f       	adc	r31, r29
     842:	e8 0f       	add	r30, r24
     844:	f1 1d       	adc	r31, r1
     846:	10 82       	st	Z, r1
        st7789_fill_rect(ZONE_X, y_device, ZONE_W, ZONE_LINE_H, INNER_BG);
     848:	02 e8       	ldi	r16, 0x82	; 130
     84a:	10 e1       	ldi	r17, 0x10	; 16
     84c:	20 e1       	ldi	r18, 0x10	; 16
     84e:	30 e0       	ldi	r19, 0x00	; 0
     850:	48 e1       	ldi	r20, 0x18	; 24
     852:	51 e0       	ldi	r21, 0x01	; 1
     854:	69 e5       	ldi	r22, 0x59	; 89
     856:	70 e0       	ldi	r23, 0x00	; 0
     858:	84 e1       	ldi	r24, 0x14	; 20
     85a:	90 e0       	ldi	r25, 0x00	; 0
     85c:	0e 94 4c 01 	call	0x298	; 0x298 <_Z16st7789_fill_rectjjjjj>
        st7789_draw_text(ZONE_X, y_device, buf, WHITE_COL, INNER_BG);
     860:	2f ef       	ldi	r18, 0xFF	; 255
     862:	3f ef       	ldi	r19, 0xFF	; 255
     864:	ae 01       	movw	r20, r28
     866:	4f 5f       	subi	r20, 0xFF	; 255
     868:	5f 4f       	sbci	r21, 0xFF	; 255
     86a:	69 e5       	ldi	r22, 0x59	; 89
     86c:	70 e0       	ldi	r23, 0x00	; 0
     86e:	84 e1       	ldi	r24, 0x14	; 20
     870:	90 e0       	ldi	r25, 0x00	; 0
     872:	0e 94 33 02 	call	0x466	; 0x466 <_Z16st7789_draw_textjjPKcjj>
    }
    
    // Zone 4: Dernière touche
    const char* last_key_ptr = (char*)display_last_key;
    const char* last_key_display = (!last_key_ptr || !last_key_ptr[0]) ? "AUCUNE" : last_key_ptr;
     876:	80 91 81 05 	lds	r24, 0x0581	; 0x800581 <display_last_key>
     87a:	88 23       	and	r24, r24
     87c:	19 f0       	breq	.+6      	; 0x884 <__DATA_REGION_LENGTH__+0x84>
     87e:	01 e8       	ldi	r16, 0x81	; 129
     880:	15 e0       	ldi	r17, 0x05	; 5
     882:	02 c0       	rjmp	.+4      	; 0x888 <__DATA_REGION_LENGTH__+0x88>
     884:	04 ec       	ldi	r16, 0xC4	; 196
     886:	11 e0       	ldi	r17, 0x01	; 1
    if (force_key_device || strcmp(last_key_display, prev_last_key) != 0) {
     888:	f1 10       	cpse	r15, r1
     88a:	08 c0       	rjmp	.+16     	; 0x89c <__DATA_REGION_LENGTH__+0x9c>
     88c:	66 ef       	ldi	r22, 0xF6	; 246
     88e:	74 e0       	ldi	r23, 0x04	; 4
     890:	c8 01       	movw	r24, r16
     892:	0e 94 91 0c 	call	0x1922	; 0x1922 <strcmp>
     896:	89 2b       	or	r24, r25
     898:	09 f4       	brne	.+2      	; 0x89c <__DATA_REGION_LENGTH__+0x9c>
     89a:	4f c0       	rjmp	.+158    	; 0x93a <__stack+0x3b>
        strncpy((char*)prev_last_key, last_key_display, 15);
     89c:	4f e0       	ldi	r20, 0x0F	; 15
     89e:	50 e0       	ldi	r21, 0x00	; 0
     8a0:	b8 01       	movw	r22, r16
     8a2:	86 ef       	ldi	r24, 0xF6	; 246
     8a4:	94 e0       	ldi	r25, 0x04	; 4
     8a6:	0e 94 9a 0c 	call	0x1934	; 0x1934 <strncpy>
        prev_last_key[15] = '\0';
     8aa:	10 92 05 05 	sts	0x0505, r1	; 0x800505 <__data_end+0xf>
        pos = 0;
        p = "TOUCHE : ";
     8ae:	ab ec       	ldi	r26, 0xCB	; 203
     8b0:	b1 e0       	ldi	r27, 0x01	; 1
    const char* last_key_ptr = (char*)display_last_key;
    const char* last_key_display = (!last_key_ptr || !last_key_ptr[0]) ? "AUCUNE" : last_key_ptr;
    if (force_key_device || strcmp(last_key_display, prev_last_key) != 0) {
        strncpy((char*)prev_last_key, last_key_display, 15);
        prev_last_key[15] = '\0';
        pos = 0;
     8b2:	80 e0       	ldi	r24, 0x00	; 0
        p = "TOUCHE : ";
        while (*p && pos < 47) buf[pos++] = *p++;
     8b4:	9c 91       	ld	r25, X
     8b6:	99 23       	and	r25, r25
     8b8:	61 f0       	breq	.+24     	; 0x8d2 <__DATA_REGION_LENGTH__+0xd2>
     8ba:	8f 32       	cpi	r24, 0x2F	; 47
     8bc:	50 f4       	brcc	.+20     	; 0x8d2 <__DATA_REGION_LENGTH__+0xd2>
     8be:	11 96       	adiw	r26, 0x01	; 1
     8c0:	e1 e0       	ldi	r30, 0x01	; 1
     8c2:	f0 e0       	ldi	r31, 0x00	; 0
     8c4:	ec 0f       	add	r30, r28
     8c6:	fd 1f       	adc	r31, r29
     8c8:	e8 0f       	add	r30, r24
     8ca:	f1 1d       	adc	r31, r1
     8cc:	90 83       	st	Z, r25
     8ce:	8f 5f       	subi	r24, 0xFF	; 255
     8d0:	f1 cf       	rjmp	.-30     	; 0x8b4 <__DATA_REGION_LENGTH__+0xb4>
        p = last_key_display;
        while (*p && pos < 47) {
     8d2:	f8 01       	movw	r30, r16
     8d4:	90 81       	ld	r25, Z
     8d6:	99 23       	and	r25, r25
     8d8:	91 f0       	breq	.+36     	; 0x8fe <__DATA_REGION_LENGTH__+0xfe>
     8da:	8f 32       	cpi	r24, 0x2F	; 47
     8dc:	80 f4       	brcc	.+32     	; 0x8fe <__DATA_REGION_LENGTH__+0xfe>
            char c = *p++;
     8de:	0f 5f       	subi	r16, 0xFF	; 255
     8e0:	1f 4f       	sbci	r17, 0xFF	; 255
            if (c >= 'a' && c <= 'z') c = c - 'a' + 'A';
     8e2:	2f e9       	ldi	r18, 0x9F	; 159
     8e4:	29 0f       	add	r18, r25
     8e6:	2a 31       	cpi	r18, 0x1A	; 26
     8e8:	08 f4       	brcc	.+2      	; 0x8ec <__DATA_REGION_LENGTH__+0xec>
     8ea:	90 52       	subi	r25, 0x20	; 32
            buf[pos++] = c;
     8ec:	e1 e0       	ldi	r30, 0x01	; 1
     8ee:	f0 e0       	ldi	r31, 0x00	; 0
     8f0:	ec 0f       	add	r30, r28
     8f2:	fd 1f       	adc	r31, r29
     8f4:	e8 0f       	add	r30, r24
     8f6:	f1 1d       	adc	r31, r1
     8f8:	90 83       	st	Z, r25
     8fa:	8f 5f       	subi	r24, 0xFF	; 255
        prev_last_key[15] = '\0';
        pos = 0;
        p = "TOUCHE : ";
        while (*p && pos < 47) buf[pos++] = *p++;
        p = last_key_display;
        while (*p && pos < 47) {
     8fc:	ea cf       	rjmp	.-44     	; 0x8d2 <__DATA_REGION_LENGTH__+0xd2>
            char c = *p++;
            if (c >= 'a' && c <= 'z') c = c - 'a' + 'A';
            buf[pos++] = c;
        }
        buf[pos] = '\0';
     8fe:	e1 e0       	ldi	r30, 0x01	; 1
     900:	f0 e0       	ldi	r31, 0x00	; 0
     902:	ec 0f       	add	r30, r28
     904:	fd 1f       	adc	r31, r29
     906:	e8 0f       	add	r30, r24
     908:	f1 1d       	adc	r31, r1
     90a:	10 82       	st	Z, r1
        st7789_fill_rect(ZONE_X, y_last_key, ZONE_W, ZONE_LINE_H, INNER_BG);
     90c:	02 e8       	ldi	r16, 0x82	; 130
     90e:	10 e1       	ldi	r17, 0x10	; 16
     910:	20 e1       	ldi	r18, 0x10	; 16
     912:	30 e0       	ldi	r19, 0x00	; 0
     914:	48 e1       	ldi	r20, 0x18	; 24
     916:	51 e0       	ldi	r21, 0x01	; 1
     918:	69 e6       	ldi	r22, 0x69	; 105
     91a:	70 e0       	ldi	r23, 0x00	; 0
     91c:	84 e1       	ldi	r24, 0x14	; 20
     91e:	90 e0       	ldi	r25, 0x00	; 0
     920:	0e 94 4c 01 	call	0x298	; 0x298 <_Z16st7789_fill_rectjjjjj>
        st7789_draw_text(ZONE_X, y_last_key, buf, WHITE_COL, INNER_BG);
     924:	2f ef       	ldi	r18, 0xFF	; 255
     926:	3f ef       	ldi	r19, 0xFF	; 255
     928:	ae 01       	movw	r20, r28
     92a:	4f 5f       	subi	r20, 0xFF	; 255
     92c:	5f 4f       	sbci	r21, 0xFF	; 255
     92e:	69 e6       	ldi	r22, 0x69	; 105
     930:	70 e0       	ldi	r23, 0x00	; 0
     932:	84 e1       	ldi	r24, 0x14	; 20
     934:	90 e0       	ldi	r25, 0x00	; 0
     936:	0e 94 33 02 	call	0x466	; 0x466 <_Z16st7789_draw_textjjPKcjj>
    }
    
    // Zone 5: Touches configurées
    uint8_t kc = display_keys_count;
     93a:	20 91 92 05 	lds	r18, 0x0592	; 0x800592 <display_keys_count>
    if (kc != prev_keys_count) {
     93e:	80 91 03 01 	lds	r24, 0x0103	; 0x800103 <_ZZ22display_update_partialhE15prev_keys_count>
     942:	28 17       	cp	r18, r24
     944:	09 f4       	brne	.+2      	; 0x948 <__stack+0x49>
     946:	8e c0       	rjmp	.+284    	; 0xa64 <__stack+0x165>
        prev_keys_count = kc;
     948:	20 93 03 01 	sts	0x0103, r18	; 0x800103 <_ZZ22display_update_partialhE15prev_keys_count>
        pos = 0;
        p = "TOUCHE CONFIGURE : ";
     94c:	a5 ed       	ldi	r26, 0xD5	; 213
     94e:	b1 e0       	ldi	r27, 0x01	; 1
    
    // Zone 5: Touches configurées
    uint8_t kc = display_keys_count;
    if (kc != prev_keys_count) {
        prev_keys_count = kc;
        pos = 0;
     950:	80 e0       	ldi	r24, 0x00	; 0
        p = "TOUCHE CONFIGURE : ";
        while (*p && pos < 47) buf[pos++] = *p++;
     952:	9c 91       	ld	r25, X
     954:	99 23       	and	r25, r25
     956:	61 f0       	breq	.+24     	; 0x970 <__stack+0x71>
     958:	8f 32       	cpi	r24, 0x2F	; 47
     95a:	50 f4       	brcc	.+20     	; 0x970 <__stack+0x71>
     95c:	11 96       	adiw	r26, 0x01	; 1
     95e:	e1 e0       	ldi	r30, 0x01	; 1
     960:	f0 e0       	ldi	r31, 0x00	; 0
     962:	ec 0f       	add	r30, r28
     964:	fd 1f       	adc	r31, r29
     966:	e8 0f       	add	r30, r24
     968:	f1 1d       	adc	r31, r1
     96a:	90 83       	st	Z, r25
     96c:	8f 5f       	subi	r24, 0xFF	; 255
     96e:	f1 cf       	rjmp	.-30     	; 0x952 <__stack+0x53>
        if (kc == 0) buf[pos++] = '0';
     970:	21 11       	cpse	r18, r1
     972:	0a c0       	rjmp	.+20     	; 0x988 <__stack+0x89>
     974:	e1 e0       	ldi	r30, 0x01	; 1
     976:	f0 e0       	ldi	r31, 0x00	; 0
     978:	ec 0f       	add	r30, r28
     97a:	fd 1f       	adc	r31, r29
     97c:	e8 0f       	add	r30, r24
     97e:	f1 1d       	adc	r31, r1
     980:	90 e3       	ldi	r25, 0x30	; 48
     982:	90 83       	st	Z, r25
     984:	8f 5f       	subi	r24, 0xFF	; 255
     986:	33 c0       	rjmp	.+102    	; 0x9ee <__stack+0xef>
     988:	90 e0       	ldi	r25, 0x00	; 0
        else {
            char nb[4];
            uint8_t i = 0;
            uint8_t n = kc;
            while (n > 0 && i < 3) { nb[i++] = '0' + (n % 10); n /= 10; }
     98a:	22 23       	and	r18, r18
     98c:	d9 f0       	breq	.+54     	; 0x9c4 <__stack+0xc5>
     98e:	93 30       	cpi	r25, 0x03	; 3
     990:	c8 f4       	brcc	.+50     	; 0x9c4 <__stack+0xc5>
     992:	e1 e3       	ldi	r30, 0x31	; 49
     994:	f0 e0       	ldi	r31, 0x00	; 0
     996:	ec 0f       	add	r30, r28
     998:	fd 1f       	adc	r31, r29
     99a:	e9 0f       	add	r30, r25
     99c:	f1 1d       	adc	r31, r1
     99e:	3d ec       	ldi	r19, 0xCD	; 205
     9a0:	23 9f       	mul	r18, r19
     9a2:	31 2d       	mov	r19, r1
     9a4:	11 24       	eor	r1, r1
     9a6:	36 95       	lsr	r19
     9a8:	36 95       	lsr	r19
     9aa:	36 95       	lsr	r19
     9ac:	53 2f       	mov	r21, r19
     9ae:	55 0f       	add	r21, r21
     9b0:	45 2f       	mov	r20, r21
     9b2:	44 0f       	add	r20, r20
     9b4:	44 0f       	add	r20, r20
     9b6:	45 0f       	add	r20, r21
     9b8:	24 1b       	sub	r18, r20
     9ba:	20 5d       	subi	r18, 0xD0	; 208
     9bc:	20 83       	st	Z, r18
     9be:	23 2f       	mov	r18, r19
     9c0:	9f 5f       	subi	r25, 0xFF	; 255
     9c2:	e3 cf       	rjmp	.-58     	; 0x98a <__stack+0x8b>
            while (i > 0 && pos < 47) buf[pos++] = nb[--i];
     9c4:	99 23       	and	r25, r25
     9c6:	99 f0       	breq	.+38     	; 0x9ee <__stack+0xef>
     9c8:	8f 32       	cpi	r24, 0x2F	; 47
     9ca:	88 f4       	brcc	.+34     	; 0x9ee <__stack+0xef>
     9cc:	91 50       	subi	r25, 0x01	; 1
     9ce:	e1 e3       	ldi	r30, 0x31	; 49
     9d0:	f0 e0       	ldi	r31, 0x00	; 0
     9d2:	ec 0f       	add	r30, r28
     9d4:	fd 1f       	adc	r31, r29
     9d6:	e9 0f       	add	r30, r25
     9d8:	f1 1d       	adc	r31, r1
     9da:	20 81       	ld	r18, Z
     9dc:	e1 e0       	ldi	r30, 0x01	; 1
     9de:	f0 e0       	ldi	r31, 0x00	; 0
     9e0:	ec 0f       	add	r30, r28
     9e2:	fd 1f       	adc	r31, r29
     9e4:	e8 0f       	add	r30, r24
     9e6:	f1 1d       	adc	r31, r1
     9e8:	20 83       	st	Z, r18
     9ea:	8f 5f       	subi	r24, 0xFF	; 255
     9ec:	eb cf       	rjmp	.-42     	; 0x9c4 <__stack+0xc5>
        }
        buf[pos++] = '/'; buf[pos++] = '2'; buf[pos++] = '0';
     9ee:	21 e0       	ldi	r18, 0x01	; 1
     9f0:	28 0f       	add	r18, r24
     9f2:	e1 e0       	ldi	r30, 0x01	; 1
     9f4:	f0 e0       	ldi	r31, 0x00	; 0
     9f6:	ec 0f       	add	r30, r28
     9f8:	fd 1f       	adc	r31, r29
     9fa:	e8 0f       	add	r30, r24
     9fc:	f1 1d       	adc	r31, r1
     9fe:	9f e2       	ldi	r25, 0x2F	; 47
     a00:	90 83       	st	Z, r25
     a02:	92 e0       	ldi	r25, 0x02	; 2
     a04:	98 0f       	add	r25, r24
     a06:	e1 e0       	ldi	r30, 0x01	; 1
     a08:	f0 e0       	ldi	r31, 0x00	; 0
     a0a:	ec 0f       	add	r30, r28
     a0c:	fd 1f       	adc	r31, r29
     a0e:	e2 0f       	add	r30, r18
     a10:	f1 1d       	adc	r31, r1
     a12:	22 e3       	ldi	r18, 0x32	; 50
     a14:	20 83       	st	Z, r18
     a16:	8d 5f       	subi	r24, 0xFD	; 253
     a18:	e1 e0       	ldi	r30, 0x01	; 1
     a1a:	f0 e0       	ldi	r31, 0x00	; 0
     a1c:	ec 0f       	add	r30, r28
     a1e:	fd 1f       	adc	r31, r29
     a20:	e9 0f       	add	r30, r25
     a22:	f1 1d       	adc	r31, r1
     a24:	90 e3       	ldi	r25, 0x30	; 48
     a26:	90 83       	st	Z, r25
        buf[pos] = '\0';
     a28:	e1 e0       	ldi	r30, 0x01	; 1
     a2a:	f0 e0       	ldi	r31, 0x00	; 0
     a2c:	ec 0f       	add	r30, r28
     a2e:	fd 1f       	adc	r31, r29
     a30:	e8 0f       	add	r30, r24
     a32:	f1 1d       	adc	r31, r1
     a34:	10 82       	st	Z, r1
        st7789_fill_rect(ZONE_X, y_keys, ZONE_W, ZONE_LINE_H, INNER_BG);
     a36:	02 e8       	ldi	r16, 0x82	; 130
     a38:	10 e1       	ldi	r17, 0x10	; 16
     a3a:	20 e1       	ldi	r18, 0x10	; 16
     a3c:	30 e0       	ldi	r19, 0x00	; 0
     a3e:	48 e1       	ldi	r20, 0x18	; 24
     a40:	51 e0       	ldi	r21, 0x01	; 1
     a42:	69 e7       	ldi	r22, 0x79	; 121
     a44:	70 e0       	ldi	r23, 0x00	; 0
     a46:	84 e1       	ldi	r24, 0x14	; 20
     a48:	90 e0       	ldi	r25, 0x00	; 0
     a4a:	0e 94 4c 01 	call	0x298	; 0x298 <_Z16st7789_fill_rectjjjjj>
        st7789_draw_text(ZONE_X, y_keys, buf, WHITE_COL, INNER_BG);
     a4e:	2f ef       	ldi	r18, 0xFF	; 255
     a50:	3f ef       	ldi	r19, 0xFF	; 255
     a52:	ae 01       	movw	r20, r28
     a54:	4f 5f       	subi	r20, 0xFF	; 255
     a56:	5f 4f       	sbci	r21, 0xFF	; 255
     a58:	69 e7       	ldi	r22, 0x79	; 121
     a5a:	70 e0       	ldi	r23, 0x00	; 0
     a5c:	84 e1       	ldi	r24, 0x14	; 20
     a5e:	90 e0       	ldi	r25, 0x00	; 0
     a60:	0e 94 33 02 	call	0x466	; 0x466 <_Z16st7789_draw_textjjPKcjj>
    }
    
    // Zone 6: Rétro-éclairage
    uint8_t be = display_backlight_enabled ? 1 : 0;
     a64:	80 91 91 05 	lds	r24, 0x0591	; 0x800591 <display_backlight_enabled>
     a68:	88 23       	and	r24, r24
     a6a:	11 f0       	breq	.+4      	; 0xa70 <__stack+0x171>
     a6c:	21 e0       	ldi	r18, 0x01	; 1
     a6e:	01 c0       	rjmp	.+2      	; 0xa72 <__stack+0x173>
     a70:	20 e0       	ldi	r18, 0x00	; 0
    if (be != prev_backlight_enabled) {
     a72:	80 91 02 01 	lds	r24, 0x0102	; 0x800102 <_ZZ22display_update_partialhE22prev_backlight_enabled>
     a76:	28 17       	cp	r18, r24
     a78:	09 f4       	brne	.+2      	; 0xa7c <__stack+0x17d>
     a7a:	64 c0       	rjmp	.+200    	; 0xb44 <__stack+0x245>
        prev_backlight_enabled = be;
     a7c:	20 93 02 01 	sts	0x0102, r18	; 0x800102 <_ZZ22display_update_partialhE22prev_backlight_enabled>
        pos = 0;
        p = "RETRO-ECLAIRAGE : ";
     a80:	a9 ee       	ldi	r26, 0xE9	; 233
     a82:	b1 e0       	ldi	r27, 0x01	; 1
    
    // Zone 6: Rétro-éclairage
    uint8_t be = display_backlight_enabled ? 1 : 0;
    if (be != prev_backlight_enabled) {
        prev_backlight_enabled = be;
        pos = 0;
     a84:	80 e0       	ldi	r24, 0x00	; 0
        p = "RETRO-ECLAIRAGE : ";
        while (*p && pos < 47) buf[pos++] = *p++;
     a86:	9c 91       	ld	r25, X
     a88:	99 23       	and	r25, r25
     a8a:	61 f0       	breq	.+24     	; 0xaa4 <__stack+0x1a5>
     a8c:	8f 32       	cpi	r24, 0x2F	; 47
     a8e:	50 f4       	brcc	.+20     	; 0xaa4 <__stack+0x1a5>
     a90:	11 96       	adiw	r26, 0x01	; 1
     a92:	e1 e0       	ldi	r30, 0x01	; 1
     a94:	f0 e0       	ldi	r31, 0x00	; 0
     a96:	ec 0f       	add	r30, r28
     a98:	fd 1f       	adc	r31, r29
     a9a:	e8 0f       	add	r30, r24
     a9c:	f1 1d       	adc	r31, r1
     a9e:	90 83       	st	Z, r25
     aa0:	8f 5f       	subi	r24, 0xFF	; 255
     aa2:	f1 cf       	rjmp	.-30     	; 0xa86 <__stack+0x187>
        if (be) { buf[pos++] = 'O'; buf[pos++] = 'N'; }
     aa4:	22 23       	and	r18, r18
     aa6:	a1 f0       	breq	.+40     	; 0xad0 <__stack+0x1d1>
     aa8:	91 e0       	ldi	r25, 0x01	; 1
     aaa:	98 0f       	add	r25, r24
     aac:	e1 e0       	ldi	r30, 0x01	; 1
     aae:	f0 e0       	ldi	r31, 0x00	; 0
     ab0:	ec 0f       	add	r30, r28
     ab2:	fd 1f       	adc	r31, r29
     ab4:	e8 0f       	add	r30, r24
     ab6:	f1 1d       	adc	r31, r1
     ab8:	2f e4       	ldi	r18, 0x4F	; 79
     aba:	20 83       	st	Z, r18
     abc:	8e 5f       	subi	r24, 0xFE	; 254
     abe:	e1 e0       	ldi	r30, 0x01	; 1
     ac0:	f0 e0       	ldi	r31, 0x00	; 0
     ac2:	ec 0f       	add	r30, r28
     ac4:	fd 1f       	adc	r31, r29
     ac6:	e9 0f       	add	r30, r25
     ac8:	f1 1d       	adc	r31, r1
     aca:	9e e4       	ldi	r25, 0x4E	; 78
     acc:	90 83       	st	Z, r25
     ace:	1c c0       	rjmp	.+56     	; 0xb08 <__stack+0x209>
        else { buf[pos++] = 'O'; buf[pos++] = 'F'; buf[pos++] = 'F'; }
     ad0:	91 e0       	ldi	r25, 0x01	; 1
     ad2:	98 0f       	add	r25, r24
     ad4:	e1 e0       	ldi	r30, 0x01	; 1
     ad6:	f0 e0       	ldi	r31, 0x00	; 0
     ad8:	ec 0f       	add	r30, r28
     ada:	fd 1f       	adc	r31, r29
     adc:	e8 0f       	add	r30, r24
     ade:	f1 1d       	adc	r31, r1
     ae0:	2f e4       	ldi	r18, 0x4F	; 79
     ae2:	20 83       	st	Z, r18
     ae4:	22 e0       	ldi	r18, 0x02	; 2
     ae6:	28 0f       	add	r18, r24
     ae8:	e1 e0       	ldi	r30, 0x01	; 1
     aea:	f0 e0       	ldi	r31, 0x00	; 0
     aec:	ec 0f       	add	r30, r28
     aee:	fd 1f       	adc	r31, r29
     af0:	e9 0f       	add	r30, r25
     af2:	f1 1d       	adc	r31, r1
     af4:	96 e4       	ldi	r25, 0x46	; 70
     af6:	90 83       	st	Z, r25
     af8:	8d 5f       	subi	r24, 0xFD	; 253
     afa:	e1 e0       	ldi	r30, 0x01	; 1
     afc:	f0 e0       	ldi	r31, 0x00	; 0
     afe:	ec 0f       	add	r30, r28
     b00:	fd 1f       	adc	r31, r29
     b02:	e2 0f       	add	r30, r18
     b04:	f1 1d       	adc	r31, r1
     b06:	90 83       	st	Z, r25
        buf[pos] = '\0';
     b08:	e1 e0       	ldi	r30, 0x01	; 1
     b0a:	f0 e0       	ldi	r31, 0x00	; 0
     b0c:	ec 0f       	add	r30, r28
     b0e:	fd 1f       	adc	r31, r29
     b10:	e8 0f       	add	r30, r24
     b12:	f1 1d       	adc	r31, r1
     b14:	10 82       	st	Z, r1
        st7789_fill_rect(ZONE_X, y_backlight, ZONE_W, ZONE_LINE_H, INNER_BG);
     b16:	02 e8       	ldi	r16, 0x82	; 130
     b18:	10 e1       	ldi	r17, 0x10	; 16
     b1a:	20 e1       	ldi	r18, 0x10	; 16
     b1c:	30 e0       	ldi	r19, 0x00	; 0
     b1e:	48 e1       	ldi	r20, 0x18	; 24
     b20:	51 e0       	ldi	r21, 0x01	; 1
     b22:	69 e8       	ldi	r22, 0x89	; 137
     b24:	70 e0       	ldi	r23, 0x00	; 0
     b26:	84 e1       	ldi	r24, 0x14	; 20
     b28:	90 e0       	ldi	r25, 0x00	; 0
     b2a:	0e 94 4c 01 	call	0x298	; 0x298 <_Z16st7789_fill_rectjjjjj>
        st7789_draw_text(ZONE_X, y_backlight, buf, WHITE_COL, INNER_BG);
     b2e:	2f ef       	ldi	r18, 0xFF	; 255
     b30:	3f ef       	ldi	r19, 0xFF	; 255
     b32:	ae 01       	movw	r20, r28
     b34:	4f 5f       	subi	r20, 0xFF	; 255
     b36:	5f 4f       	sbci	r21, 0xFF	; 255
     b38:	69 e8       	ldi	r22, 0x89	; 137
     b3a:	70 e0       	ldi	r23, 0x00	; 0
     b3c:	84 e1       	ldi	r24, 0x14	; 20
     b3e:	90 e0       	ldi	r25, 0x00	; 0
     b40:	0e 94 33 02 	call	0x466	; 0x466 <_Z16st7789_draw_textjjPKcjj>
    }
    
    // Zone 7: Luminosité
    uint16_t lv = light_level;
     b44:	00 91 9a 05 	lds	r16, 0x059A	; 0x80059a <light_level>
     b48:	10 91 9b 05 	lds	r17, 0x059B	; 0x80059b <light_level+0x1>
    if (lv != prev_light_level) {
     b4c:	80 91 00 01 	lds	r24, 0x0100	; 0x800100 <__DATA_REGION_ORIGIN__>
     b50:	90 91 01 01 	lds	r25, 0x0101	; 0x800101 <__DATA_REGION_ORIGIN__+0x1>
     b54:	08 17       	cp	r16, r24
     b56:	19 07       	cpc	r17, r25
     b58:	09 f4       	brne	.+2      	; 0xb5c <__stack+0x25d>
     b5a:	8a c0       	rjmp	.+276    	; 0xc70 <__stack+0x371>
        prev_light_level = lv;
     b5c:	10 93 01 01 	sts	0x0101, r17	; 0x800101 <__DATA_REGION_ORIGIN__+0x1>
     b60:	00 93 00 01 	sts	0x0100, r16	; 0x800100 <__DATA_REGION_ORIGIN__>
        pos = 0;
        p = "LUMINOSITE : ";
     b64:	ac ef       	ldi	r26, 0xFC	; 252
     b66:	b1 e0       	ldi	r27, 0x01	; 1
    
    // Zone 7: Luminosité
    uint16_t lv = light_level;
    if (lv != prev_light_level) {
        prev_light_level = lv;
        pos = 0;
     b68:	40 e0       	ldi	r20, 0x00	; 0
        p = "LUMINOSITE : ";
        while (*p && pos < 47) buf[pos++] = *p++;
     b6a:	8c 91       	ld	r24, X
     b6c:	88 23       	and	r24, r24
     b6e:	61 f0       	breq	.+24     	; 0xb88 <__stack+0x289>
     b70:	4f 32       	cpi	r20, 0x2F	; 47
     b72:	50 f4       	brcc	.+20     	; 0xb88 <__stack+0x289>
     b74:	11 96       	adiw	r26, 0x01	; 1
     b76:	e1 e0       	ldi	r30, 0x01	; 1
     b78:	f0 e0       	ldi	r31, 0x00	; 0
     b7a:	ec 0f       	add	r30, r28
     b7c:	fd 1f       	adc	r31, r29
     b7e:	e4 0f       	add	r30, r20
     b80:	f1 1d       	adc	r31, r1
     b82:	80 83       	st	Z, r24
     b84:	4f 5f       	subi	r20, 0xFF	; 255
     b86:	f1 cf       	rjmp	.-30     	; 0xb6a <__stack+0x26b>
        if (lv == 0) buf[pos++] = '0';
     b88:	01 15       	cp	r16, r1
     b8a:	11 05       	cpc	r17, r1
     b8c:	51 f4       	brne	.+20     	; 0xba2 <__stack+0x2a3>
     b8e:	e1 e0       	ldi	r30, 0x01	; 1
     b90:	f0 e0       	ldi	r31, 0x00	; 0
     b92:	ec 0f       	add	r30, r28
     b94:	fd 1f       	adc	r31, r29
     b96:	e4 0f       	add	r30, r20
     b98:	f1 1d       	adc	r31, r1
     b9a:	80 e3       	ldi	r24, 0x30	; 48
     b9c:	80 83       	st	Z, r24
     b9e:	4f 5f       	subi	r20, 0xFF	; 255
     ba0:	49 c0       	rjmp	.+146    	; 0xc34 <__stack+0x335>
     ba2:	50 e0       	ldi	r21, 0x00	; 0
        else {
            char nb[5];
            uint8_t i = 0;
            uint16_t n = lv;
            while (n > 0 && i < 4) { nb[i++] = '0' + (n % 10); n /= 10; }
     ba4:	01 15       	cp	r16, r1
     ba6:	11 05       	cpc	r17, r1
     ba8:	81 f1       	breq	.+96     	; 0xc0a <__stack+0x30b>
     baa:	54 30       	cpi	r21, 0x04	; 4
     bac:	70 f5       	brcc	.+92     	; 0xc0a <__stack+0x30b>
     bae:	98 01       	movw	r18, r16
     bb0:	ad ec       	ldi	r26, 0xCD	; 205
     bb2:	bc ec       	ldi	r27, 0xCC	; 204
     bb4:	0e 94 79 0c 	call	0x18f2	; 0x18f2 <__umulhisi3>
     bb8:	96 95       	lsr	r25
     bba:	87 95       	ror	r24
     bbc:	96 95       	lsr	r25
     bbe:	87 95       	ror	r24
     bc0:	96 95       	lsr	r25
     bc2:	87 95       	ror	r24
     bc4:	9c 01       	movw	r18, r24
     bc6:	22 0f       	add	r18, r18
     bc8:	33 1f       	adc	r19, r19
     bca:	88 0f       	add	r24, r24
     bcc:	99 1f       	adc	r25, r25
     bce:	88 0f       	add	r24, r24
     bd0:	99 1f       	adc	r25, r25
     bd2:	88 0f       	add	r24, r24
     bd4:	99 1f       	adc	r25, r25
     bd6:	82 0f       	add	r24, r18
     bd8:	93 1f       	adc	r25, r19
     bda:	98 01       	movw	r18, r16
     bdc:	28 1b       	sub	r18, r24
     bde:	39 0b       	sbc	r19, r25
     be0:	c9 01       	movw	r24, r18
     be2:	e1 e3       	ldi	r30, 0x31	; 49
     be4:	f0 e0       	ldi	r31, 0x00	; 0
     be6:	ec 0f       	add	r30, r28
     be8:	fd 1f       	adc	r31, r29
     bea:	e5 0f       	add	r30, r21
     bec:	f1 1d       	adc	r31, r1
     bee:	80 5d       	subi	r24, 0xD0	; 208
     bf0:	80 83       	st	Z, r24
     bf2:	98 01       	movw	r18, r16
     bf4:	0e 94 79 0c 	call	0x18f2	; 0x18f2 <__umulhisi3>
     bf8:	8c 01       	movw	r16, r24
     bfa:	16 95       	lsr	r17
     bfc:	07 95       	ror	r16
     bfe:	16 95       	lsr	r17
     c00:	07 95       	ror	r16
     c02:	16 95       	lsr	r17
     c04:	07 95       	ror	r16
     c06:	5f 5f       	subi	r21, 0xFF	; 255
     c08:	cd cf       	rjmp	.-102    	; 0xba4 <__stack+0x2a5>
            while (i > 0 && pos < 47) buf[pos++] = nb[--i];
     c0a:	55 23       	and	r21, r21
     c0c:	99 f0       	breq	.+38     	; 0xc34 <__stack+0x335>
     c0e:	4f 32       	cpi	r20, 0x2F	; 47
     c10:	88 f4       	brcc	.+34     	; 0xc34 <__stack+0x335>
     c12:	51 50       	subi	r21, 0x01	; 1
     c14:	e1 e3       	ldi	r30, 0x31	; 49
     c16:	f0 e0       	ldi	r31, 0x00	; 0
     c18:	ec 0f       	add	r30, r28
     c1a:	fd 1f       	adc	r31, r29
     c1c:	e5 0f       	add	r30, r21
     c1e:	f1 1d       	adc	r31, r1
     c20:	80 81       	ld	r24, Z
     c22:	e1 e0       	ldi	r30, 0x01	; 1
     c24:	f0 e0       	ldi	r31, 0x00	; 0
     c26:	ec 0f       	add	r30, r28
     c28:	fd 1f       	adc	r31, r29
     c2a:	e4 0f       	add	r30, r20
     c2c:	f1 1d       	adc	r31, r1
     c2e:	80 83       	st	Z, r24
     c30:	4f 5f       	subi	r20, 0xFF	; 255
     c32:	eb cf       	rjmp	.-42     	; 0xc0a <__stack+0x30b>
        }
        buf[pos] = '\0';
     c34:	e1 e0       	ldi	r30, 0x01	; 1
     c36:	f0 e0       	ldi	r31, 0x00	; 0
     c38:	ec 0f       	add	r30, r28
     c3a:	fd 1f       	adc	r31, r29
     c3c:	e4 0f       	add	r30, r20
     c3e:	f1 1d       	adc	r31, r1
     c40:	10 82       	st	Z, r1
        st7789_fill_rect(ZONE_X, y_light, ZONE_W, ZONE_LINE_H, INNER_BG);
     c42:	02 e8       	ldi	r16, 0x82	; 130
     c44:	10 e1       	ldi	r17, 0x10	; 16
     c46:	20 e1       	ldi	r18, 0x10	; 16
     c48:	30 e0       	ldi	r19, 0x00	; 0
     c4a:	48 e1       	ldi	r20, 0x18	; 24
     c4c:	51 e0       	ldi	r21, 0x01	; 1
     c4e:	69 e9       	ldi	r22, 0x99	; 153
     c50:	70 e0       	ldi	r23, 0x00	; 0
     c52:	84 e1       	ldi	r24, 0x14	; 20
     c54:	90 e0       	ldi	r25, 0x00	; 0
     c56:	0e 94 4c 01 	call	0x298	; 0x298 <_Z16st7789_fill_rectjjjjj>
        st7789_draw_text(ZONE_X, y_light, buf, WHITE_COL, INNER_BG);
     c5a:	2f ef       	ldi	r18, 0xFF	; 255
     c5c:	3f ef       	ldi	r19, 0xFF	; 255
     c5e:	ae 01       	movw	r20, r28
     c60:	4f 5f       	subi	r20, 0xFF	; 255
     c62:	5f 4f       	sbci	r21, 0xFF	; 255
     c64:	69 e9       	ldi	r22, 0x99	; 153
     c66:	70 e0       	ldi	r23, 0x00	; 0
     c68:	84 e1       	ldi	r24, 0x14	; 20
     c6a:	90 e0       	ldi	r25, 0x00	; 0
     c6c:	0e 94 33 02 	call	0x466	; 0x466 <_Z16st7789_draw_textjjPKcjj>
    }
}
     c70:	e5 96       	adiw	r28, 0x35	; 53
     c72:	0f b6       	in	r0, 0x3f	; 63
     c74:	f8 94       	cli
     c76:	de bf       	out	0x3e, r29	; 62
     c78:	0f be       	out	0x3f, r0	; 63
     c7a:	cd bf       	out	0x3d, r28	; 61
     c7c:	df 91       	pop	r29
     c7e:	cf 91       	pop	r28
     c80:	1f 91       	pop	r17
     c82:	0f 91       	pop	r16
     c84:	ff 90       	pop	r15
     c86:	08 95       	ret

00000c88 <_Z19display_simple_infov>:

// Alias pour compatibilité - appelle la mise à jour partielle
void display_simple_info(void) {
    display_update_partial(0);
     c88:	80 e0       	ldi	r24, 0x00	; 0
     c8a:	0e 94 14 03 	call	0x628	; 0x628 <_Z22display_update_partialh>
     c8e:	08 95       	ret

00000c90 <_Z14uart_send_byteh>:
}

// Fonction pour envoyer une réponse via UART
void uart_send_byte(uint8_t data) {
    while (!(UCSR0A & (1 << UDRE0)));  // Attendre que le buffer de transmission soit vide
     c90:	90 91 c0 00 	lds	r25, 0x00C0	; 0x8000c0 <__TEXT_REGION_LENGTH__+0x7f80c0>
     c94:	95 ff       	sbrs	r25, 5
     c96:	fc cf       	rjmp	.-8      	; 0xc90 <_Z14uart_send_byteh>
    UDR0 = data;
     c98:	80 93 c6 00 	sts	0x00C6, r24	; 0x8000c6 <__TEXT_REGION_LENGTH__+0x7f80c6>
     c9c:	08 95       	ret

00000c9e <_Z11debug_printPKc>:
    // Pas besoin d'initialiser ici, l'UART principal est déjà initialisé dans uart_init()
    // Cette fonction existe juste pour compatibilité
}

// Envoyer un string sur l'UART principal (vers ESP32)
void debug_print(const char* str) {
     c9e:	cf 93       	push	r28
     ca0:	df 93       	push	r29
     ca2:	ec 01       	movw	r28, r24
    while (*str) {
     ca4:	88 81       	ld	r24, Y
     ca6:	88 23       	and	r24, r24
     ca8:	21 f0       	breq	.+8      	; 0xcb2 <_Z11debug_printPKc+0x14>
        uart_send_byte(*str++);
     caa:	21 96       	adiw	r28, 0x01	; 1
     cac:	0e 94 48 06 	call	0xc90	; 0xc90 <_Z14uart_send_byteh>
    // Cette fonction existe juste pour compatibilité
}

// Envoyer un string sur l'UART principal (vers ESP32)
void debug_print(const char* str) {
    while (*str) {
     cb0:	f9 cf       	rjmp	.-14     	; 0xca4 <_Z11debug_printPKc+0x6>
        uart_send_byte(*str++);
    }
}
     cb2:	df 91       	pop	r29
     cb4:	cf 91       	pop	r28
     cb6:	08 95       	ret

00000cb8 <_Z11st7789_initv>:
}

// Initialiser le ST7789
void st7789_init(void) {
    // Reset hardware
    ST7789_RST_PORT &= ~(1 << ST7789_RST_PIN);
     cb8:	85 b1       	in	r24, 0x05	; 5
     cba:	8e 7f       	andi	r24, 0xFE	; 254
     cbc:	85 b9       	out	0x05, r24	; 5
	#else
		//round up by default
		__ticks_dc = (uint32_t)(ceil(fabs(__tmp)));
	#endif

	__builtin_avr_delay_cycles(__ticks_dc);
     cbe:	87 e8       	ldi	r24, 0x87	; 135
     cc0:	93 e1       	ldi	r25, 0x13	; 19
     cc2:	01 97       	sbiw	r24, 0x01	; 1
     cc4:	f1 f7       	brne	.-4      	; 0xcc2 <_Z11st7789_initv+0xa>
     cc6:	00 c0       	rjmp	.+0      	; 0xcc8 <_Z11st7789_initv+0x10>
     cc8:	00 00       	nop
    _delay_ms(20);
    ST7789_RST_PORT |= (1 << ST7789_RST_PIN);
     cca:	85 b1       	in	r24, 0x05	; 5
     ccc:	81 60       	ori	r24, 0x01	; 1
     cce:	85 b9       	out	0x05, r24	; 5
     cd0:	87 e8       	ldi	r24, 0x87	; 135
     cd2:	93 e1       	ldi	r25, 0x13	; 19
     cd4:	01 97       	sbiw	r24, 0x01	; 1
     cd6:	f1 f7       	brne	.-4      	; 0xcd4 <_Z11st7789_initv+0x1c>
     cd8:	00 c0       	rjmp	.+0      	; 0xcda <_Z11st7789_initv+0x22>
     cda:	00 00       	nop
    _delay_ms(20);
    
    // Software reset
    st7789_write_cmd(ST7789_SWRESET);
     cdc:	81 e0       	ldi	r24, 0x01	; 1
     cde:	0e 94 c0 00 	call	0x180	; 0x180 <_Z16st7789_write_cmdh>
     ce2:	8b e7       	ldi	r24, 0x7B	; 123
     ce4:	92 e9       	ldi	r25, 0x92	; 146
     ce6:	01 97       	sbiw	r24, 0x01	; 1
     ce8:	f1 f7       	brne	.-4      	; 0xce6 <_Z11st7789_initv+0x2e>
     cea:	00 c0       	rjmp	.+0      	; 0xcec <_Z11st7789_initv+0x34>
     cec:	00 00       	nop
    _delay_ms(150);
    
    // Sortir du mode sleep
    st7789_write_cmd(ST7789_SLPOUT);
     cee:	81 e1       	ldi	r24, 0x11	; 17
     cf0:	0e 94 c0 00 	call	0x180	; 0x180 <_Z16st7789_write_cmdh>
     cf4:	8b e7       	ldi	r24, 0x7B	; 123
     cf6:	92 e9       	ldi	r25, 0x92	; 146
     cf8:	01 97       	sbiw	r24, 0x01	; 1
     cfa:	f1 f7       	brne	.-4      	; 0xcf8 <_Z11st7789_initv+0x40>
     cfc:	00 c0       	rjmp	.+0      	; 0xcfe <_Z11st7789_initv+0x46>
     cfe:	00 00       	nop
    _delay_ms(150);
    
    // Configuration couleur (RGB565)
    st7789_write_cmd(ST7789_COLMOD);
     d00:	8a e3       	ldi	r24, 0x3A	; 58
     d02:	0e 94 c0 00 	call	0x180	; 0x180 <_Z16st7789_write_cmdh>
    st7789_write_data(0x55);  // 16-bit color (RGB565)
     d06:	85 e5       	ldi	r24, 0x55	; 85
     d08:	0e 94 cc 00 	call	0x198	; 0x198 <_Z17st7789_write_datah>
     d0c:	83 ec       	ldi	r24, 0xC3	; 195
     d0e:	99 e0       	ldi	r25, 0x09	; 9
     d10:	01 97       	sbiw	r24, 0x01	; 1
     d12:	f1 f7       	brne	.-4      	; 0xd10 <_Z11st7789_initv+0x58>
     d14:	00 c0       	rjmp	.+0      	; 0xd16 <_Z11st7789_initv+0x5e>
     d16:	00 00       	nop
    _delay_ms(10);
    
    // Memory access control (orientation)
    // Pour un écran 1.9" 170x320 en mode landscape, connecteur à droite
    st7789_write_cmd(ST7789_MADCTL);
     d18:	86 e3       	ldi	r24, 0x36	; 54
     d1a:	0e 94 c0 00 	call	0x180	; 0x180 <_Z16st7789_write_cmdh>
    // Essayer différentes valeurs pour trouver la bonne rotation
    // 0x00 = Normal (portrait, RGB order)
    // 0x60 = 90° rotation (MV=1, landscape, connecteur à gauche)
    // 0xA0 = 270° rotation (MV=1, MY=1, landscape, connecteur à droite)
    // 0xC0 = 180° rotation (MY=1, MX=1)
    st7789_write_data(0xA0);  // Rotation 270° : landscape avec connecteur à droite
     d1e:	80 ea       	ldi	r24, 0xA0	; 160
     d20:	0e 94 cc 00 	call	0x198	; 0x198 <_Z17st7789_write_datah>
     d24:	83 ec       	ldi	r24, 0xC3	; 195
     d26:	99 e0       	ldi	r25, 0x09	; 9
     d28:	01 97       	sbiw	r24, 0x01	; 1
     d2a:	f1 f7       	brne	.-4      	; 0xd28 <_Z11st7789_initv+0x70>
     d2c:	00 c0       	rjmp	.+0      	; 0xd2e <_Z11st7789_initv+0x76>
     d2e:	00 00       	nop
    _delay_ms(10);
    
    // Inversion des couleurs - INVON pour que 0x0000 soit noir
    // Si le fond est blanc/rose avec INVOFF, utiliser INVON
    st7789_write_cmd(ST7789_INVON);  // Inversion des couleurs activée
     d30:	81 e2       	ldi	r24, 0x21	; 33
     d32:	0e 94 c0 00 	call	0x180	; 0x180 <_Z16st7789_write_cmdh>
     d36:	83 ec       	ldi	r24, 0xC3	; 195
     d38:	99 e0       	ldi	r25, 0x09	; 9
     d3a:	01 97       	sbiw	r24, 0x01	; 1
     d3c:	f1 f7       	brne	.-4      	; 0xd3a <_Z11st7789_initv+0x82>
     d3e:	00 c0       	rjmp	.+0      	; 0xd40 <_Z11st7789_initv+0x88>
     d40:	00 00       	nop
    _delay_ms(10);
    
    // Activer l'affichage
    st7789_write_cmd(ST7789_DISPON);
     d42:	89 e2       	ldi	r24, 0x29	; 41
     d44:	0e 94 c0 00 	call	0x180	; 0x180 <_Z16st7789_write_cmdh>
     d48:	87 ea       	ldi	r24, 0xA7	; 167
     d4a:	91 e6       	ldi	r25, 0x61	; 97
     d4c:	01 97       	sbiw	r24, 0x01	; 1
     d4e:	f1 f7       	brne	.-4      	; 0xd4c <_Z11st7789_initv+0x94>
     d50:	00 c0       	rjmp	.+0      	; 0xd52 <_Z11st7789_initv+0x9a>
     d52:	00 00       	nop
    _delay_ms(100);  // Délai plus long pour s'assurer que l'écran est prêt
    
    // CRITIQUE: Remplir TOUT l'écran en noir avec fill_screen (plus fiable)
    uint16_t black = 0x0000;  // Noir RGB565
    st7789_fill_screen(black);  // Utiliser fill_screen pour être sûr que tout est noir
     d54:	80 e0       	ldi	r24, 0x00	; 0
     d56:	90 e0       	ldi	r25, 0x00	; 0
     d58:	0e 94 12 01 	call	0x224	; 0x224 <_Z18st7789_fill_screenj>
     d5c:	83 ed       	ldi	r24, 0xD3	; 211
     d5e:	90 e3       	ldi	r25, 0x30	; 48
     d60:	01 97       	sbiw	r24, 0x01	; 1
     d62:	f1 f7       	brne	.-4      	; 0xd60 <_Z11st7789_initv+0xa8>
     d64:	00 c0       	rjmp	.+0      	; 0xd66 <_Z11st7789_initv+0xae>
     d66:	00 00       	nop
    _delay_ms(50);
    
    // Afficher les informations simplifiées
    display_simple_info();
     d68:	0e 94 44 06 	call	0xc88	; 0xc88 <_Z19display_simple_infov>
    
    // Marquer que l'affichage a été initialisé
    display_initialized = 1;
     d6c:	81 e0       	ldi	r24, 0x01	; 1
     d6e:	80 93 5f 05 	sts	0x055F, r24	; 0x80055f <display_initialized>
    
    debug_print("ST7789 initialized\r\n");
     d72:	8a e0       	ldi	r24, 0x0A	; 10
     d74:	92 e0       	ldi	r25, 0x02	; 2
     d76:	0e 94 4f 06 	call	0xc9e	; 0xc9e <_Z11debug_printPKc>
     d7a:	08 95       	ret

00000d7c <_Z15debug_print_hexh>:
        uart_send_byte(*str++);
    }
}

// Envoyer une valeur hexadécimale sur l'UART principal
void debug_print_hex(uint8_t val) {
     d7c:	1f 93       	push	r17
     d7e:	cf 93       	push	r28
     d80:	df 93       	push	r29
     d82:	cd b7       	in	r28, 0x3d	; 61
     d84:	de b7       	in	r29, 0x3e	; 62
     d86:	61 97       	sbiw	r28, 0x11	; 17
     d88:	0f b6       	in	r0, 0x3f	; 63
     d8a:	f8 94       	cli
     d8c:	de bf       	out	0x3e, r29	; 62
     d8e:	0f be       	out	0x3f, r0	; 63
     d90:	cd bf       	out	0x3d, r28	; 61
     d92:	18 2f       	mov	r17, r24
    char hex[] = "0123456789ABCDEF";
     d94:	81 e1       	ldi	r24, 0x11	; 17
     d96:	ef e1       	ldi	r30, 0x1F	; 31
     d98:	f2 e0       	ldi	r31, 0x02	; 2
     d9a:	de 01       	movw	r26, r28
     d9c:	11 96       	adiw	r26, 0x01	; 1
     d9e:	01 90       	ld	r0, Z+
     da0:	0d 92       	st	X+, r0
     da2:	8a 95       	dec	r24
     da4:	e1 f7       	brne	.-8      	; 0xd9e <_Z15debug_print_hexh+0x22>
    uart_send_byte(hex[(val >> 4) & 0x0F]);
     da6:	81 2f       	mov	r24, r17
     da8:	82 95       	swap	r24
     daa:	8f 70       	andi	r24, 0x0F	; 15
     dac:	e1 e0       	ldi	r30, 0x01	; 1
     dae:	f0 e0       	ldi	r31, 0x00	; 0
     db0:	ec 0f       	add	r30, r28
     db2:	fd 1f       	adc	r31, r29
     db4:	e8 0f       	add	r30, r24
     db6:	f1 1d       	adc	r31, r1
     db8:	80 81       	ld	r24, Z
     dba:	0e 94 48 06 	call	0xc90	; 0xc90 <_Z14uart_send_byteh>
    uart_send_byte(hex[val & 0x0F]);
     dbe:	1f 70       	andi	r17, 0x0F	; 15
     dc0:	e1 e0       	ldi	r30, 0x01	; 1
     dc2:	f0 e0       	ldi	r31, 0x00	; 0
     dc4:	ec 0f       	add	r30, r28
     dc6:	fd 1f       	adc	r31, r29
     dc8:	e1 0f       	add	r30, r17
     dca:	f1 1d       	adc	r31, r1
     dcc:	80 81       	ld	r24, Z
     dce:	0e 94 48 06 	call	0xc90	; 0xc90 <_Z14uart_send_byteh>
}
     dd2:	61 96       	adiw	r28, 0x11	; 17
     dd4:	0f b6       	in	r0, 0x3f	; 63
     dd6:	f8 94       	cli
     dd8:	de bf       	out	0x3e, r29	; 62
     dda:	0f be       	out	0x3f, r0	; 63
     ddc:	cd bf       	out	0x3d, r28	; 61
     dde:	df 91       	pop	r29
     de0:	cf 91       	pop	r28
     de2:	1f 91       	pop	r17
     de4:	08 95       	ret

00000de6 <_Z15debug_print_decj>:

// Envoyer une valeur décimale sur l'UART principal
void debug_print_dec(uint16_t val) {
     de6:	1f 93       	push	r17
     de8:	cf 93       	push	r28
     dea:	df 93       	push	r29
     dec:	00 d0       	rcall	.+0      	; 0xdee <_Z15debug_print_decj+0x8>
     dee:	00 d0       	rcall	.+0      	; 0xdf0 <_Z15debug_print_decj+0xa>
     df0:	00 d0       	rcall	.+0      	; 0xdf2 <_Z15debug_print_decj+0xc>
     df2:	cd b7       	in	r28, 0x3d	; 61
     df4:	de b7       	in	r29, 0x3e	; 62
     df6:	ac 01       	movw	r20, r24
    char buf[6];
    uint8_t i = 0;
    if (val == 0) {
     df8:	89 2b       	or	r24, r25
     dfa:	21 f4       	brne	.+8      	; 0xe04 <_Z15debug_print_decj+0x1e>
        uart_send_byte('0');
     dfc:	80 e3       	ldi	r24, 0x30	; 48
     dfe:	0e 94 48 06 	call	0xc90	; 0xc90 <_Z14uart_send_byteh>
     e02:	41 c0       	rjmp	.+130    	; 0xe86 <_Z15debug_print_decj+0xa0>
     e04:	10 e0       	ldi	r17, 0x00	; 0
        return;
    }
    while (val > 0 && i < 5) {
     e06:	41 15       	cp	r20, r1
     e08:	51 05       	cpc	r21, r1
     e0a:	81 f1       	breq	.+96     	; 0xe6c <_Z15debug_print_decj+0x86>
     e0c:	15 30       	cpi	r17, 0x05	; 5
     e0e:	70 f5       	brcc	.+92     	; 0xe6c <_Z15debug_print_decj+0x86>
        buf[i++] = '0' + (val % 10);
     e10:	9a 01       	movw	r18, r20
     e12:	ad ec       	ldi	r26, 0xCD	; 205
     e14:	bc ec       	ldi	r27, 0xCC	; 204
     e16:	0e 94 79 0c 	call	0x18f2	; 0x18f2 <__umulhisi3>
     e1a:	96 95       	lsr	r25
     e1c:	87 95       	ror	r24
     e1e:	96 95       	lsr	r25
     e20:	87 95       	ror	r24
     e22:	96 95       	lsr	r25
     e24:	87 95       	ror	r24
     e26:	9c 01       	movw	r18, r24
     e28:	22 0f       	add	r18, r18
     e2a:	33 1f       	adc	r19, r19
     e2c:	88 0f       	add	r24, r24
     e2e:	99 1f       	adc	r25, r25
     e30:	88 0f       	add	r24, r24
     e32:	99 1f       	adc	r25, r25
     e34:	88 0f       	add	r24, r24
     e36:	99 1f       	adc	r25, r25
     e38:	82 0f       	add	r24, r18
     e3a:	93 1f       	adc	r25, r19
     e3c:	9a 01       	movw	r18, r20
     e3e:	28 1b       	sub	r18, r24
     e40:	39 0b       	sbc	r19, r25
     e42:	c9 01       	movw	r24, r18
     e44:	e1 e0       	ldi	r30, 0x01	; 1
     e46:	f0 e0       	ldi	r31, 0x00	; 0
     e48:	ec 0f       	add	r30, r28
     e4a:	fd 1f       	adc	r31, r29
     e4c:	e1 0f       	add	r30, r17
     e4e:	f1 1d       	adc	r31, r1
     e50:	80 5d       	subi	r24, 0xD0	; 208
     e52:	80 83       	st	Z, r24
        val /= 10;
     e54:	9a 01       	movw	r18, r20
     e56:	0e 94 79 0c 	call	0x18f2	; 0x18f2 <__umulhisi3>
     e5a:	ac 01       	movw	r20, r24
     e5c:	56 95       	lsr	r21
     e5e:	47 95       	ror	r20
     e60:	56 95       	lsr	r21
     e62:	47 95       	ror	r20
     e64:	56 95       	lsr	r21
     e66:	47 95       	ror	r20
    if (val == 0) {
        uart_send_byte('0');
        return;
    }
    while (val > 0 && i < 5) {
        buf[i++] = '0' + (val % 10);
     e68:	1f 5f       	subi	r17, 0xFF	; 255
    uint8_t i = 0;
    if (val == 0) {
        uart_send_byte('0');
        return;
    }
    while (val > 0 && i < 5) {
     e6a:	cd cf       	rjmp	.-102    	; 0xe06 <_Z15debug_print_decj+0x20>
        buf[i++] = '0' + (val % 10);
        val /= 10;
    }
    while (i > 0) {
     e6c:	11 23       	and	r17, r17
     e6e:	59 f0       	breq	.+22     	; 0xe86 <_Z15debug_print_decj+0xa0>
        uart_send_byte(buf[--i]);
     e70:	11 50       	subi	r17, 0x01	; 1
     e72:	e1 e0       	ldi	r30, 0x01	; 1
     e74:	f0 e0       	ldi	r31, 0x00	; 0
     e76:	ec 0f       	add	r30, r28
     e78:	fd 1f       	adc	r31, r29
     e7a:	e1 0f       	add	r30, r17
     e7c:	f1 1d       	adc	r31, r1
     e7e:	80 81       	ld	r24, Z
     e80:	0e 94 48 06 	call	0xc90	; 0xc90 <_Z14uart_send_byteh>
    }
    while (val > 0 && i < 5) {
        buf[i++] = '0' + (val % 10);
        val /= 10;
    }
    while (i > 0) {
     e84:	f3 cf       	rjmp	.-26     	; 0xe6c <_Z15debug_print_decj+0x86>
        uart_send_byte(buf[--i]);
    }
}
     e86:	26 96       	adiw	r28, 0x06	; 6
     e88:	0f b6       	in	r0, 0x3f	; 63
     e8a:	f8 94       	cli
     e8c:	de bf       	out	0x3e, r29	; 62
     e8e:	0f be       	out	0x3f, r0	; 63
     e90:	cd bf       	out	0x3d, r28	; 61
     e92:	df 91       	pop	r29
     e94:	cf 91       	pop	r28
     e96:	1f 91       	pop	r17
     e98:	08 95       	ret

00000e9a <_Z21uart_send_light_asciiv>:
    
    return 0;
}

// Envoyer la luminosité actuelle en ASCII lisible sur l'UART (ex: "LIGHT=512\n")
void uart_send_light_ascii(void) {
     e9a:	ef 92       	push	r14
     e9c:	ff 92       	push	r15
     e9e:	1f 93       	push	r17
     ea0:	cf 93       	push	r28
     ea2:	df 93       	push	r29
     ea4:	00 d0       	rcall	.+0      	; 0xea6 <_Z21uart_send_light_asciiv+0xc>
     ea6:	00 d0       	rcall	.+0      	; 0xea8 <_Z21uart_send_light_asciiv+0xe>
     ea8:	00 d0       	rcall	.+0      	; 0xeaa <_Z21uart_send_light_asciiv+0x10>
     eaa:	cd b7       	in	r28, 0x3d	; 61
     eac:	de b7       	in	r29, 0x3e	; 62
    uint16_t value = light_level;
     eae:	e0 90 9a 05 	lds	r14, 0x059A	; 0x80059a <light_level>
     eb2:	f0 90 9b 05 	lds	r15, 0x059B	; 0x80059b <light_level+0x1>
    
    // Prefixe
    uart_send_byte('L');
     eb6:	8c e4       	ldi	r24, 0x4C	; 76
     eb8:	0e 94 48 06 	call	0xc90	; 0xc90 <_Z14uart_send_byteh>
    uart_send_byte('I');
     ebc:	89 e4       	ldi	r24, 0x49	; 73
     ebe:	0e 94 48 06 	call	0xc90	; 0xc90 <_Z14uart_send_byteh>
    uart_send_byte('G');
     ec2:	87 e4       	ldi	r24, 0x47	; 71
     ec4:	0e 94 48 06 	call	0xc90	; 0xc90 <_Z14uart_send_byteh>
    uart_send_byte('H');
     ec8:	88 e4       	ldi	r24, 0x48	; 72
     eca:	0e 94 48 06 	call	0xc90	; 0xc90 <_Z14uart_send_byteh>
    uart_send_byte('T');
     ece:	84 e5       	ldi	r24, 0x54	; 84
     ed0:	0e 94 48 06 	call	0xc90	; 0xc90 <_Z14uart_send_byteh>
    uart_send_byte('=');
     ed4:	8d e3       	ldi	r24, 0x3D	; 61
     ed6:	0e 94 48 06 	call	0xc90	; 0xc90 <_Z14uart_send_byteh>
    
    // Conversion décimale (similaire à debug_print_dec mais sur l'UART principal)
    char buf[6];
    uint8_t i = 0;
    if (value == 0) {
     eda:	e1 14       	cp	r14, r1
     edc:	f1 04       	cpc	r15, r1
     ede:	21 f4       	brne	.+8      	; 0xee8 <_Z21uart_send_light_asciiv+0x4e>
        uart_send_byte('0');
     ee0:	80 e3       	ldi	r24, 0x30	; 48
     ee2:	0e 94 48 06 	call	0xc90	; 0xc90 <_Z14uart_send_byteh>
     ee6:	41 c0       	rjmp	.+130    	; 0xf6a <_Z21uart_send_light_asciiv+0xd0>
     ee8:	10 e0       	ldi	r17, 0x00	; 0
    } else {
        while (value > 0 && i < 5) {
     eea:	e1 14       	cp	r14, r1
     eec:	f1 04       	cpc	r15, r1
     eee:	81 f1       	breq	.+96     	; 0xf50 <_Z21uart_send_light_asciiv+0xb6>
     ef0:	15 30       	cpi	r17, 0x05	; 5
     ef2:	70 f5       	brcc	.+92     	; 0xf50 <_Z21uart_send_light_asciiv+0xb6>
            buf[i++] = '0' + (value % 10);
     ef4:	97 01       	movw	r18, r14
     ef6:	ad ec       	ldi	r26, 0xCD	; 205
     ef8:	bc ec       	ldi	r27, 0xCC	; 204
     efa:	0e 94 79 0c 	call	0x18f2	; 0x18f2 <__umulhisi3>
     efe:	96 95       	lsr	r25
     f00:	87 95       	ror	r24
     f02:	96 95       	lsr	r25
     f04:	87 95       	ror	r24
     f06:	96 95       	lsr	r25
     f08:	87 95       	ror	r24
     f0a:	9c 01       	movw	r18, r24
     f0c:	22 0f       	add	r18, r18
     f0e:	33 1f       	adc	r19, r19
     f10:	88 0f       	add	r24, r24
     f12:	99 1f       	adc	r25, r25
     f14:	88 0f       	add	r24, r24
     f16:	99 1f       	adc	r25, r25
     f18:	88 0f       	add	r24, r24
     f1a:	99 1f       	adc	r25, r25
     f1c:	82 0f       	add	r24, r18
     f1e:	93 1f       	adc	r25, r19
     f20:	97 01       	movw	r18, r14
     f22:	28 1b       	sub	r18, r24
     f24:	39 0b       	sbc	r19, r25
     f26:	c9 01       	movw	r24, r18
     f28:	e1 e0       	ldi	r30, 0x01	; 1
     f2a:	f0 e0       	ldi	r31, 0x00	; 0
     f2c:	ec 0f       	add	r30, r28
     f2e:	fd 1f       	adc	r31, r29
     f30:	e1 0f       	add	r30, r17
     f32:	f1 1d       	adc	r31, r1
     f34:	80 5d       	subi	r24, 0xD0	; 208
     f36:	80 83       	st	Z, r24
            value /= 10;
     f38:	97 01       	movw	r18, r14
     f3a:	0e 94 79 0c 	call	0x18f2	; 0x18f2 <__umulhisi3>
     f3e:	7c 01       	movw	r14, r24
     f40:	f6 94       	lsr	r15
     f42:	e7 94       	ror	r14
     f44:	f6 94       	lsr	r15
     f46:	e7 94       	ror	r14
     f48:	f6 94       	lsr	r15
     f4a:	e7 94       	ror	r14
    uint8_t i = 0;
    if (value == 0) {
        uart_send_byte('0');
    } else {
        while (value > 0 && i < 5) {
            buf[i++] = '0' + (value % 10);
     f4c:	1f 5f       	subi	r17, 0xFF	; 255
    char buf[6];
    uint8_t i = 0;
    if (value == 0) {
        uart_send_byte('0');
    } else {
        while (value > 0 && i < 5) {
     f4e:	cd cf       	rjmp	.-102    	; 0xeea <_Z21uart_send_light_asciiv+0x50>
            buf[i++] = '0' + (value % 10);
            value /= 10;
        }
        while (i > 0) {
     f50:	11 23       	and	r17, r17
     f52:	59 f0       	breq	.+22     	; 0xf6a <_Z21uart_send_light_asciiv+0xd0>
            uart_send_byte(buf[--i]);
     f54:	11 50       	subi	r17, 0x01	; 1
     f56:	e1 e0       	ldi	r30, 0x01	; 1
     f58:	f0 e0       	ldi	r31, 0x00	; 0
     f5a:	ec 0f       	add	r30, r28
     f5c:	fd 1f       	adc	r31, r29
     f5e:	e1 0f       	add	r30, r17
     f60:	f1 1d       	adc	r31, r1
     f62:	80 81       	ld	r24, Z
     f64:	0e 94 48 06 	call	0xc90	; 0xc90 <_Z14uart_send_byteh>
    } else {
        while (value > 0 && i < 5) {
            buf[i++] = '0' + (value % 10);
            value /= 10;
        }
        while (i > 0) {
     f68:	f3 cf       	rjmp	.-26     	; 0xf50 <_Z21uart_send_light_asciiv+0xb6>
            uart_send_byte(buf[--i]);
        }
    }
    uart_send_byte('\n');
     f6a:	8a e0       	ldi	r24, 0x0A	; 10
     f6c:	0e 94 48 06 	call	0xc90	; 0xc90 <_Z14uart_send_byteh>
}
     f70:	26 96       	adiw	r28, 0x06	; 6
     f72:	0f b6       	in	r0, 0x3f	; 63
     f74:	f8 94       	cli
     f76:	de bf       	out	0x3e, r29	; 62
     f78:	0f be       	out	0x3f, r0	; 63
     f7a:	cd bf       	out	0x3d, r28	; 61
     f7c:	df 91       	pop	r29
     f7e:	cf 91       	pop	r28
     f80:	1f 91       	pop	r17
     f82:	ff 90       	pop	r15
     f84:	ef 90       	pop	r14
     f86:	08 95       	ret

00000f88 <_Z18uart_send_responsehPhh>:
void uart_send_byte(uint8_t data) {
    while (!(UCSR0A & (1 << UDRE0)));  // Attendre que le buffer de transmission soit vide
    UDR0 = data;
}

void uart_send_response(uint8_t cmd, uint8_t* data, uint8_t len) {
     f88:	0f 93       	push	r16
     f8a:	1f 93       	push	r17
     f8c:	cf 93       	push	r28
     f8e:	df 93       	push	r29
     f90:	8b 01       	movw	r16, r22
     f92:	d4 2f       	mov	r29, r20
    // Envoyer la commande
    uart_send_byte(cmd);
     f94:	0e 94 48 06 	call	0xc90	; 0xc90 <_Z14uart_send_byteh>
    // Envoyer les données
    for (uint8_t i = 0; i < len; i++) {
     f98:	c0 e0       	ldi	r28, 0x00	; 0
     f9a:	cd 17       	cp	r28, r29
     f9c:	40 f4       	brcc	.+16     	; 0xfae <_Z18uart_send_responsehPhh+0x26>
        uart_send_byte(data[i]);
     f9e:	f8 01       	movw	r30, r16
     fa0:	ec 0f       	add	r30, r28
     fa2:	f1 1d       	adc	r31, r1
     fa4:	80 81       	ld	r24, Z
     fa6:	0e 94 48 06 	call	0xc90	; 0xc90 <_Z14uart_send_byteh>

void uart_send_response(uint8_t cmd, uint8_t* data, uint8_t len) {
    // Envoyer la commande
    uart_send_byte(cmd);
    // Envoyer les données
    for (uint8_t i = 0; i < len; i++) {
     faa:	cf 5f       	subi	r28, 0xFF	; 255
     fac:	f6 cf       	rjmp	.-20     	; 0xf9a <_Z18uart_send_responsehPhh+0x12>
        uart_send_byte(data[i]);
    }
    uart_send_byte('\n');
     fae:	8a e0       	ldi	r24, 0x0A	; 10
     fb0:	0e 94 48 06 	call	0xc90	; 0xc90 <_Z14uart_send_byteh>
}
     fb4:	df 91       	pop	r29
     fb6:	cf 91       	pop	r28
     fb8:	1f 91       	pop	r17
     fba:	0f 91       	pop	r16
     fbc:	08 95       	ret

00000fbe <_Z18processUartCommandv>:

// Traiter une commande UART complète
void processUartCommand() {
     fbe:	ef 92       	push	r14
     fc0:	ff 92       	push	r15
     fc2:	0f 93       	push	r16
     fc4:	1f 93       	push	r17
     fc6:	cf 93       	push	r28
     fc8:	df 93       	push	r29
     fca:	00 d0       	rcall	.+0      	; 0xfcc <_Z18processUartCommandv+0xe>
     fcc:	cd b7       	in	r28, 0x3d	; 61
     fce:	de b7       	in	r29, 0x3e	; 62
    if (uart_buffer_index < 1) return;
     fd0:	80 91 9f 05 	lds	r24, 0x059F	; 0x80059f <uart_buffer_index>
     fd4:	88 23       	and	r24, r24
     fd6:	09 f4       	brne	.+2      	; 0xfda <_Z18processUartCommandv+0x1c>
     fd8:	25 c3       	rjmp	.+1610   	; 0x1624 <_Z18processUartCommandv+0x666>
    
    uart_command = uart_buffer[0];
     fda:	80 91 a0 05 	lds	r24, 0x05A0	; 0x8005a0 <uart_buffer>
     fde:	80 93 9d 05 	sts	0x059D, r24	; 0x80059d <uart_command>
    
    LOG_DEBUG("[UART] Command received: 0x");
     fe2:	80 91 5e 05 	lds	r24, 0x055E	; 0x80055e <debug_enabled>
     fe6:	88 23       	and	r24, r24
     fe8:	31 f0       	breq	.+12     	; 0xff6 <_Z18processUartCommandv+0x38>
     fea:	80 91 06 01 	lds	r24, 0x0106	; 0x800106 <log_level>
     fee:	83 30       	cpi	r24, 0x03	; 3
     ff0:	20 f4       	brcc	.+8      	; 0xffa <_Z18processUartCommandv+0x3c>
     ff2:	80 e0       	ldi	r24, 0x00	; 0
     ff4:	03 c0       	rjmp	.+6      	; 0xffc <_Z18processUartCommandv+0x3e>
     ff6:	80 e0       	ldi	r24, 0x00	; 0
     ff8:	01 c0       	rjmp	.+2      	; 0xffc <_Z18processUartCommandv+0x3e>
     ffa:	81 e0       	ldi	r24, 0x01	; 1
     ffc:	88 23       	and	r24, r24
     ffe:	21 f0       	breq	.+8      	; 0x1008 <_Z18processUartCommandv+0x4a>
    1000:	80 e3       	ldi	r24, 0x30	; 48
    1002:	92 e0       	ldi	r25, 0x02	; 2
    1004:	0e 94 4f 06 	call	0xc9e	; 0xc9e <_Z11debug_printPKc>
    debug_print_hex(uart_command);
    1008:	80 91 9d 05 	lds	r24, 0x059D	; 0x80059d <uart_command>
    100c:	0e 94 be 06 	call	0xd7c	; 0xd7c <_Z15debug_print_hexh>
    debug_print("\r\n");
    1010:	82 eb       	ldi	r24, 0xB2	; 178
    1012:	93 e0       	ldi	r25, 0x03	; 3
    1014:	0e 94 4f 06 	call	0xc9e	; 0xc9e <_Z11debug_printPKc>
    
    switch (uart_command) {
    1018:	e0 91 9d 05 	lds	r30, 0x059D	; 0x80059d <uart_command>
    101c:	8e 2f       	mov	r24, r30
    101e:	90 e0       	ldi	r25, 0x00	; 0
    1020:	fc 01       	movw	r30, r24
    1022:	31 97       	sbiw	r30, 0x01	; 1
    1024:	eb 30       	cpi	r30, 0x0B	; 11
    1026:	f1 05       	cpc	r31, r1
    1028:	08 f0       	brcs	.+2      	; 0x102c <_Z18processUartCommandv+0x6e>
    102a:	f6 c2       	rjmp	.+1516   	; 0x1618 <_Z18processUartCommandv+0x65a>
    102c:	ec 5c       	subi	r30, 0xCC	; 204
    102e:	ff 4f       	sbci	r31, 0xFF	; 255
    1030:	0c 94 73 0c 	jmp	0x18e6	; 0x18e6 <__tablejump2__>
        case CMD_READ_LIGHT:
            // Envoyer la luminosité (2 bytes, little-endian)
            {
                uint8_t response[2] = {(uint8_t)(light_level & 0xFF), (uint8_t)((light_level >> 8) & 0xFF)};
    1034:	80 91 9a 05 	lds	r24, 0x059A	; 0x80059a <light_level>
    1038:	90 91 9b 05 	lds	r25, 0x059B	; 0x80059b <light_level+0x1>
    103c:	89 83       	std	Y+1, r24	; 0x01
    103e:	80 91 9a 05 	lds	r24, 0x059A	; 0x80059a <light_level>
    1042:	90 91 9b 05 	lds	r25, 0x059B	; 0x80059b <light_level+0x1>
    1046:	9a 83       	std	Y+2, r25	; 0x02
                uart_send_response(CMD_READ_LIGHT, response, 2);
    1048:	42 e0       	ldi	r20, 0x02	; 2
    104a:	be 01       	movw	r22, r28
    104c:	6f 5f       	subi	r22, 0xFF	; 255
    104e:	7f 4f       	sbci	r23, 0xFF	; 255
    1050:	81 e0       	ldi	r24, 0x01	; 1
    1052:	0e 94 c4 07 	call	0xf88	; 0xf88 <_Z18uart_send_responsehPhh>
            }
            break;
    1056:	e0 c2       	rjmp	.+1472   	; 0x1618 <_Z18processUartCommandv+0x65a>
            
        case CMD_GET_LED:
            // Envoyer la luminosité LED
            {
                uint8_t response[1] = {led_brightness};
    1058:	80 91 9c 05 	lds	r24, 0x059C	; 0x80059c <led_brightness>
    105c:	89 83       	std	Y+1, r24	; 0x01
                uart_send_response(CMD_GET_LED, response, 1);
    105e:	41 e0       	ldi	r20, 0x01	; 1
    1060:	be 01       	movw	r22, r28
    1062:	6f 5f       	subi	r22, 0xFF	; 255
    1064:	7f 4f       	sbci	r23, 0xFF	; 255
    1066:	83 e0       	ldi	r24, 0x03	; 3
    1068:	0e 94 c4 07 	call	0xf88	; 0xf88 <_Z18uart_send_responsehPhh>
            }
            break;
    106c:	d5 c2       	rjmp	.+1450   	; 0x1618 <_Z18processUartCommandv+0x65a>
            
        case CMD_SET_LED:
            if (uart_buffer_index >= 2) {
    106e:	80 91 9f 05 	lds	r24, 0x059F	; 0x80059f <uart_buffer_index>
    1072:	82 30       	cpi	r24, 0x02	; 2
    1074:	08 f4       	brcc	.+2      	; 0x1078 <_Z18processUartCommandv+0xba>
    1076:	d0 c2       	rjmp	.+1440   	; 0x1618 <_Z18processUartCommandv+0x65a>
                uint8_t brightness = uart_buffer[1];
    1078:	10 91 a1 05 	lds	r17, 0x05A1	; 0x8005a1 <uart_buffer+0x1>
                LOG_INFO("[UART] Setting LED brightness: ");
    107c:	80 91 5e 05 	lds	r24, 0x055E	; 0x80055e <debug_enabled>
    1080:	88 23       	and	r24, r24
    1082:	31 f0       	breq	.+12     	; 0x1090 <_Z18processUartCommandv+0xd2>
    1084:	80 91 06 01 	lds	r24, 0x0106	; 0x800106 <log_level>
    1088:	82 30       	cpi	r24, 0x02	; 2
    108a:	20 f4       	brcc	.+8      	; 0x1094 <_Z18processUartCommandv+0xd6>
    108c:	80 e0       	ldi	r24, 0x00	; 0
    108e:	03 c0       	rjmp	.+6      	; 0x1096 <_Z18processUartCommandv+0xd8>
    1090:	80 e0       	ldi	r24, 0x00	; 0
    1092:	01 c0       	rjmp	.+2      	; 0x1096 <_Z18processUartCommandv+0xd8>
    1094:	81 e0       	ldi	r24, 0x01	; 1
    1096:	88 23       	and	r24, r24
    1098:	21 f0       	breq	.+8      	; 0x10a2 <_Z18processUartCommandv+0xe4>
    109a:	8c e4       	ldi	r24, 0x4C	; 76
    109c:	92 e0       	ldi	r25, 0x02	; 2
    109e:	0e 94 4f 06 	call	0xc9e	; 0xc9e <_Z11debug_printPKc>
                debug_print_dec(brightness);
    10a2:	81 2f       	mov	r24, r17
    10a4:	90 e0       	ldi	r25, 0x00	; 0
    10a6:	0e 94 f3 06 	call	0xde6	; 0xde6 <_Z15debug_print_decj>
                debug_print("\r\n");
    10aa:	82 eb       	ldi	r24, 0xB2	; 178
    10ac:	93 e0       	ldi	r25, 0x03	; 3
    10ae:	0e 94 4f 06 	call	0xc9e	; 0xc9e <_Z11debug_printPKc>
                set_led_brightness(brightness);
    10b2:	81 2f       	mov	r24, r17
    10b4:	0e 94 9d 00 	call	0x13a	; 0x13a <_Z18set_led_brightnessh>
                st7789_update_display();
    10b8:	0e 94 5f 02 	call	0x4be	; 0x4be <_Z21st7789_update_displayv>
    10bc:	ad c2       	rjmp	.+1370   	; 0x1618 <_Z18processUartCommandv+0x65a>
            }
            break;
            
        case CMD_UPDATE_DISPLAY:
            st7789_update_display();
    10be:	0e 94 5f 02 	call	0x4be	; 0x4be <_Z21st7789_update_displayv>
            break;
    10c2:	aa c2       	rjmp	.+1364   	; 0x1618 <_Z18processUartCommandv+0x65a>
            
        case CMD_SET_DISPLAY_DATA:
            // Parser les données d'affichage
            if (uart_buffer_index > 1) {
    10c4:	80 91 9f 05 	lds	r24, 0x059F	; 0x80059f <uart_buffer_index>
    10c8:	82 30       	cpi	r24, 0x02	; 2
    10ca:	08 f4       	brcc	.+2      	; 0x10ce <_Z18processUartCommandv+0x110>
    10cc:	a5 c2       	rjmp	.+1354   	; 0x1618 <_Z18processUartCommandv+0x65a>
                uint8_t pos = 1;
                if (pos < uart_buffer_index) {
    10ce:	80 91 9f 05 	lds	r24, 0x059F	; 0x80059f <uart_buffer_index>
    10d2:	82 30       	cpi	r24, 0x02	; 2
    10d4:	30 f0       	brcs	.+12     	; 0x10e2 <_Z18processUartCommandv+0x124>
                    display_brightness = uart_buffer[pos++];
    10d6:	80 91 a1 05 	lds	r24, 0x05A1	; 0x8005a1 <uart_buffer+0x1>
    10da:	80 93 07 01 	sts	0x0107, r24	; 0x800107 <display_brightness>
    10de:	e2 e0       	ldi	r30, 0x02	; 2
    10e0:	01 c0       	rjmp	.+2      	; 0x10e4 <_Z18processUartCommandv+0x126>
            break;
            
        case CMD_SET_DISPLAY_DATA:
            // Parser les données d'affichage
            if (uart_buffer_index > 1) {
                uint8_t pos = 1;
    10e2:	e1 e0       	ldi	r30, 0x01	; 1
                if (pos < uart_buffer_index) {
                    display_brightness = uart_buffer[pos++];
                }
                // Mode
                if (pos < uart_buffer_index) {
    10e4:	80 91 9f 05 	lds	r24, 0x059F	; 0x80059f <uart_buffer_index>
    10e8:	e8 17       	cp	r30, r24
    10ea:	60 f5       	brcc	.+88     	; 0x1144 <_Z18processUartCommandv+0x186>
                    uint8_t mode_len = uart_buffer[pos++];
    10ec:	01 e0       	ldi	r16, 0x01	; 1
    10ee:	0e 0f       	add	r16, r30
    10f0:	f0 e0       	ldi	r31, 0x00	; 0
    10f2:	e0 56       	subi	r30, 0x60	; 96
    10f4:	fa 4f       	sbci	r31, 0xFA	; 250
    10f6:	10 81       	ld	r17, Z
                    if (mode_len < 16 && pos + mode_len <= uart_buffer_index) {
    10f8:	10 31       	cpi	r17, 0x10	; 16
    10fa:	60 f4       	brcc	.+24     	; 0x1114 <_Z18processUartCommandv+0x156>
    10fc:	21 2f       	mov	r18, r17
    10fe:	30 e0       	ldi	r19, 0x00	; 0
    1100:	20 0f       	add	r18, r16
    1102:	31 1d       	adc	r19, r1
    1104:	80 91 9f 05 	lds	r24, 0x059F	; 0x80059f <uart_buffer_index>
    1108:	90 e0       	ldi	r25, 0x00	; 0
    110a:	82 17       	cp	r24, r18
    110c:	93 07       	cpc	r25, r19
    110e:	24 f4       	brge	.+8      	; 0x1118 <_Z18processUartCommandv+0x15a>
    1110:	80 e0       	ldi	r24, 0x00	; 0
    1112:	03 c0       	rjmp	.+6      	; 0x111a <_Z18processUartCommandv+0x15c>
    1114:	80 e0       	ldi	r24, 0x00	; 0
    1116:	01 c0       	rjmp	.+2      	; 0x111a <_Z18processUartCommandv+0x15c>
    1118:	81 e0       	ldi	r24, 0x01	; 1
    111a:	88 23       	and	r24, r24
    111c:	91 f0       	breq	.+36     	; 0x1142 <_Z18processUartCommandv+0x184>
                        memcpy((void*)display_mode, (const void*)&uart_buffer[pos], mode_len);
    111e:	e1 2e       	mov	r14, r17
    1120:	f1 2c       	mov	r15, r1
    1122:	60 2f       	mov	r22, r16
    1124:	70 e0       	ldi	r23, 0x00	; 0
    1126:	60 56       	subi	r22, 0x60	; 96
    1128:	7a 4f       	sbci	r23, 0xFA	; 250
    112a:	a7 01       	movw	r20, r14
    112c:	88 e3       	ldi	r24, 0x38	; 56
    112e:	91 e0       	ldi	r25, 0x01	; 1
    1130:	0e 94 88 0c 	call	0x1910	; 0x1910 <memcpy>
                        display_mode[mode_len] = '\0';
    1134:	f7 01       	movw	r30, r14
    1136:	e8 5c       	subi	r30, 0xC8	; 200
    1138:	fe 4f       	sbci	r31, 0xFE	; 254
    113a:	10 82       	st	Z, r1
                        pos += mode_len;
    113c:	e0 2f       	mov	r30, r16
    113e:	e1 0f       	add	r30, r17
    1140:	01 c0       	rjmp	.+2      	; 0x1144 <_Z18processUartCommandv+0x186>
                if (pos < uart_buffer_index) {
                    display_brightness = uart_buffer[pos++];
                }
                // Mode
                if (pos < uart_buffer_index) {
                    uint8_t mode_len = uart_buffer[pos++];
    1142:	e0 2f       	mov	r30, r16
                        display_mode[mode_len] = '\0';
                        pos += mode_len;
                    }
                }
                // Profile
                if (pos < uart_buffer_index) {
    1144:	80 91 9f 05 	lds	r24, 0x059F	; 0x80059f <uart_buffer_index>
    1148:	e8 17       	cp	r30, r24
    114a:	60 f5       	brcc	.+88     	; 0x11a4 <_Z18processUartCommandv+0x1e6>
                    uint8_t profile_len = uart_buffer[pos++];
    114c:	01 e0       	ldi	r16, 0x01	; 1
    114e:	0e 0f       	add	r16, r30
    1150:	f0 e0       	ldi	r31, 0x00	; 0
    1152:	e0 56       	subi	r30, 0x60	; 96
    1154:	fa 4f       	sbci	r31, 0xFA	; 250
    1156:	10 81       	ld	r17, Z
                    if (profile_len < 32 && pos + profile_len <= uart_buffer_index) {
    1158:	10 32       	cpi	r17, 0x20	; 32
    115a:	60 f4       	brcc	.+24     	; 0x1174 <_Z18processUartCommandv+0x1b6>
    115c:	21 2f       	mov	r18, r17
    115e:	30 e0       	ldi	r19, 0x00	; 0
    1160:	20 0f       	add	r18, r16
    1162:	31 1d       	adc	r19, r1
    1164:	80 91 9f 05 	lds	r24, 0x059F	; 0x80059f <uart_buffer_index>
    1168:	90 e0       	ldi	r25, 0x00	; 0
    116a:	82 17       	cp	r24, r18
    116c:	93 07       	cpc	r25, r19
    116e:	24 f4       	brge	.+8      	; 0x1178 <_Z18processUartCommandv+0x1ba>
    1170:	80 e0       	ldi	r24, 0x00	; 0
    1172:	03 c0       	rjmp	.+6      	; 0x117a <_Z18processUartCommandv+0x1bc>
    1174:	80 e0       	ldi	r24, 0x00	; 0
    1176:	01 c0       	rjmp	.+2      	; 0x117a <_Z18processUartCommandv+0x1bc>
    1178:	81 e0       	ldi	r24, 0x01	; 1
    117a:	88 23       	and	r24, r24
    117c:	91 f0       	breq	.+36     	; 0x11a2 <_Z18processUartCommandv+0x1e4>
                        memcpy((void*)display_profile, (const void*)&uart_buffer[pos], profile_len);
    117e:	e1 2e       	mov	r14, r17
    1180:	f1 2c       	mov	r15, r1
    1182:	60 2f       	mov	r22, r16
    1184:	70 e0       	ldi	r23, 0x00	; 0
    1186:	60 56       	subi	r22, 0x60	; 96
    1188:	7a 4f       	sbci	r23, 0xFA	; 250
    118a:	a7 01       	movw	r20, r14
    118c:	88 e1       	ldi	r24, 0x18	; 24
    118e:	91 e0       	ldi	r25, 0x01	; 1
    1190:	0e 94 88 0c 	call	0x1910	; 0x1910 <memcpy>
                        display_profile[profile_len] = '\0';
    1194:	f7 01       	movw	r30, r14
    1196:	e8 5e       	subi	r30, 0xE8	; 232
    1198:	fe 4f       	sbci	r31, 0xFE	; 254
    119a:	10 82       	st	Z, r1
                        pos += profile_len;
    119c:	e0 2f       	mov	r30, r16
    119e:	e1 0f       	add	r30, r17
    11a0:	01 c0       	rjmp	.+2      	; 0x11a4 <_Z18processUartCommandv+0x1e6>
                        pos += mode_len;
                    }
                }
                // Profile
                if (pos < uart_buffer_index) {
                    uint8_t profile_len = uart_buffer[pos++];
    11a2:	e0 2f       	mov	r30, r16
                        display_profile[profile_len] = '\0';
                        pos += profile_len;
                    }
                }
                // Output mode
                if (pos < uart_buffer_index) {
    11a4:	80 91 9f 05 	lds	r24, 0x059F	; 0x80059f <uart_buffer_index>
    11a8:	e8 17       	cp	r30, r24
    11aa:	60 f5       	brcc	.+88     	; 0x1204 <_Z18processUartCommandv+0x246>
                    uint8_t output_len = uart_buffer[pos++];
    11ac:	01 e0       	ldi	r16, 0x01	; 1
    11ae:	0e 0f       	add	r16, r30
    11b0:	f0 e0       	ldi	r31, 0x00	; 0
    11b2:	e0 56       	subi	r30, 0x60	; 96
    11b4:	fa 4f       	sbci	r31, 0xFA	; 250
    11b6:	10 81       	ld	r17, Z
                    if (output_len < 16 && pos + output_len <= uart_buffer_index) {
    11b8:	10 31       	cpi	r17, 0x10	; 16
    11ba:	60 f4       	brcc	.+24     	; 0x11d4 <_Z18processUartCommandv+0x216>
    11bc:	21 2f       	mov	r18, r17
    11be:	30 e0       	ldi	r19, 0x00	; 0
    11c0:	20 0f       	add	r18, r16
    11c2:	31 1d       	adc	r19, r1
    11c4:	80 91 9f 05 	lds	r24, 0x059F	; 0x80059f <uart_buffer_index>
    11c8:	90 e0       	ldi	r25, 0x00	; 0
    11ca:	82 17       	cp	r24, r18
    11cc:	93 07       	cpc	r25, r19
    11ce:	24 f4       	brge	.+8      	; 0x11d8 <_Z18processUartCommandv+0x21a>
    11d0:	80 e0       	ldi	r24, 0x00	; 0
    11d2:	03 c0       	rjmp	.+6      	; 0x11da <_Z18processUartCommandv+0x21c>
    11d4:	80 e0       	ldi	r24, 0x00	; 0
    11d6:	01 c0       	rjmp	.+2      	; 0x11da <_Z18processUartCommandv+0x21c>
    11d8:	81 e0       	ldi	r24, 0x01	; 1
    11da:	88 23       	and	r24, r24
    11dc:	91 f0       	breq	.+36     	; 0x1202 <_Z18processUartCommandv+0x244>
                        memcpy((void*)display_output_mode, (const void*)&uart_buffer[pos], output_len);
    11de:	e1 2e       	mov	r14, r17
    11e0:	f1 2c       	mov	r15, r1
    11e2:	60 2f       	mov	r22, r16
    11e4:	70 e0       	ldi	r23, 0x00	; 0
    11e6:	60 56       	subi	r22, 0x60	; 96
    11e8:	7a 4f       	sbci	r23, 0xFA	; 250
    11ea:	a7 01       	movw	r20, r14
    11ec:	88 e0       	ldi	r24, 0x08	; 8
    11ee:	91 e0       	ldi	r25, 0x01	; 1
    11f0:	0e 94 88 0c 	call	0x1910	; 0x1910 <memcpy>
                        display_output_mode[output_len] = '\0';
    11f4:	f7 01       	movw	r30, r14
    11f6:	e8 5f       	subi	r30, 0xF8	; 248
    11f8:	fe 4f       	sbci	r31, 0xFE	; 254
    11fa:	10 82       	st	Z, r1
                        pos += output_len;
    11fc:	e0 2f       	mov	r30, r16
    11fe:	e1 0f       	add	r30, r17
    1200:	01 c0       	rjmp	.+2      	; 0x1204 <_Z18processUartCommandv+0x246>
                        pos += profile_len;
                    }
                }
                // Output mode
                if (pos < uart_buffer_index) {
                    uint8_t output_len = uart_buffer[pos++];
    1202:	e0 2f       	mov	r30, r16
                        display_output_mode[output_len] = '\0';
                        pos += output_len;
                    }
                }
                // Keys count
                if (pos < uart_buffer_index) {
    1204:	80 91 9f 05 	lds	r24, 0x059F	; 0x80059f <uart_buffer_index>
    1208:	e8 17       	cp	r30, r24
    120a:	40 f4       	brcc	.+16     	; 0x121c <_Z18processUartCommandv+0x25e>
                    display_keys_count = uart_buffer[pos++];
    120c:	ae 2f       	mov	r26, r30
    120e:	b0 e0       	ldi	r27, 0x00	; 0
    1210:	a0 56       	subi	r26, 0x60	; 96
    1212:	ba 4f       	sbci	r27, 0xFA	; 250
    1214:	8c 91       	ld	r24, X
    1216:	80 93 92 05 	sts	0x0592, r24	; 0x800592 <display_keys_count>
    121a:	ef 5f       	subi	r30, 0xFF	; 255
                }
                // Last key pressed
                if (pos < uart_buffer_index) {
    121c:	80 91 9f 05 	lds	r24, 0x059F	; 0x80059f <uart_buffer_index>
    1220:	e8 17       	cp	r30, r24
    1222:	b0 f5       	brcc	.+108    	; 0x1290 <_Z18processUartCommandv+0x2d2>
                    uint8_t last_key_len = uart_buffer[pos++];
    1224:	01 e0       	ldi	r16, 0x01	; 1
    1226:	0e 0f       	add	r16, r30
    1228:	f0 e0       	ldi	r31, 0x00	; 0
    122a:	e0 56       	subi	r30, 0x60	; 96
    122c:	fa 4f       	sbci	r31, 0xFA	; 250
    122e:	10 81       	ld	r17, Z
                    if (last_key_len < 16) {
    1230:	10 31       	cpi	r17, 0x10	; 16
    1232:	58 f5       	brcc	.+86     	; 0x128a <_Z18processUartCommandv+0x2cc>
                        if (last_key_len > 0 && pos + last_key_len <= uart_buffer_index) {
    1234:	11 23       	and	r17, r17
    1236:	61 f0       	breq	.+24     	; 0x1250 <_Z18processUartCommandv+0x292>
    1238:	21 2f       	mov	r18, r17
    123a:	30 e0       	ldi	r19, 0x00	; 0
    123c:	20 0f       	add	r18, r16
    123e:	31 1d       	adc	r19, r1
    1240:	80 91 9f 05 	lds	r24, 0x059F	; 0x80059f <uart_buffer_index>
    1244:	90 e0       	ldi	r25, 0x00	; 0
    1246:	82 17       	cp	r24, r18
    1248:	93 07       	cpc	r25, r19
    124a:	24 f4       	brge	.+8      	; 0x1254 <_Z18processUartCommandv+0x296>
    124c:	80 e0       	ldi	r24, 0x00	; 0
    124e:	03 c0       	rjmp	.+6      	; 0x1256 <_Z18processUartCommandv+0x298>
    1250:	80 e0       	ldi	r24, 0x00	; 0
    1252:	01 c0       	rjmp	.+2      	; 0x1256 <_Z18processUartCommandv+0x298>
    1254:	81 e0       	ldi	r24, 0x01	; 1
    1256:	88 23       	and	r24, r24
    1258:	91 f0       	breq	.+36     	; 0x127e <_Z18processUartCommandv+0x2c0>
                            memcpy((void*)display_last_key, (const void*)&uart_buffer[pos], last_key_len);
    125a:	e1 2e       	mov	r14, r17
    125c:	f1 2c       	mov	r15, r1
    125e:	60 2f       	mov	r22, r16
    1260:	70 e0       	ldi	r23, 0x00	; 0
    1262:	60 56       	subi	r22, 0x60	; 96
    1264:	7a 4f       	sbci	r23, 0xFA	; 250
    1266:	a7 01       	movw	r20, r14
    1268:	81 e8       	ldi	r24, 0x81	; 129
    126a:	95 e0       	ldi	r25, 0x05	; 5
    126c:	0e 94 88 0c 	call	0x1910	; 0x1910 <memcpy>
                            display_last_key[last_key_len] = '\0';
    1270:	f7 01       	movw	r30, r14
    1272:	ef 57       	subi	r30, 0x7F	; 127
    1274:	fa 4f       	sbci	r31, 0xFA	; 250
    1276:	10 82       	st	Z, r1
                            pos += last_key_len;
    1278:	e0 2f       	mov	r30, r16
    127a:	e1 0f       	add	r30, r17
    127c:	09 c0       	rjmp	.+18     	; 0x1290 <_Z18processUartCommandv+0x2d2>
                        } else if (last_key_len == 0) {
    127e:	11 11       	cpse	r17, r1
    1280:	06 c0       	rjmp	.+12     	; 0x128e <_Z18processUartCommandv+0x2d0>
                            display_last_key[0] = '\0';
    1282:	10 92 81 05 	sts	0x0581, r1	; 0x800581 <display_last_key>
                if (pos < uart_buffer_index) {
                    display_keys_count = uart_buffer[pos++];
                }
                // Last key pressed
                if (pos < uart_buffer_index) {
                    uint8_t last_key_len = uart_buffer[pos++];
    1286:	e0 2f       	mov	r30, r16
    1288:	03 c0       	rjmp	.+6      	; 0x1290 <_Z18processUartCommandv+0x2d2>
    128a:	e0 2f       	mov	r30, r16
    128c:	01 c0       	rjmp	.+2      	; 0x1290 <_Z18processUartCommandv+0x2d2>
    128e:	e0 2f       	mov	r30, r16
                            display_last_key[0] = '\0';
                        }
                    }
                }
                // Backlight enabled
                if (pos < uart_buffer_index) {
    1290:	80 91 9f 05 	lds	r24, 0x059F	; 0x80059f <uart_buffer_index>
    1294:	e8 17       	cp	r30, r24
    1296:	40 f4       	brcc	.+16     	; 0x12a8 <_Z18processUartCommandv+0x2ea>
                    display_backlight_enabled = uart_buffer[pos++];
    1298:	ae 2f       	mov	r26, r30
    129a:	b0 e0       	ldi	r27, 0x00	; 0
    129c:	a0 56       	subi	r26, 0x60	; 96
    129e:	ba 4f       	sbci	r27, 0xFA	; 250
    12a0:	8c 91       	ld	r24, X
    12a2:	80 93 91 05 	sts	0x0591, r24	; 0x800591 <display_backlight_enabled>
    12a6:	ef 5f       	subi	r30, 0xFF	; 255
                }
                // Backlight brightness
                if (pos < uart_buffer_index) {
    12a8:	80 91 9f 05 	lds	r24, 0x059F	; 0x80059f <uart_buffer_index>
    12ac:	e8 17       	cp	r30, r24
    12ae:	40 f4       	brcc	.+16     	; 0x12c0 <_Z18processUartCommandv+0x302>
                    display_backlight_brightness = uart_buffer[pos++];
    12b0:	ae 2f       	mov	r26, r30
    12b2:	b0 e0       	ldi	r27, 0x00	; 0
    12b4:	a0 56       	subi	r26, 0x60	; 96
    12b6:	ba 4f       	sbci	r27, 0xFA	; 250
    12b8:	8c 91       	ld	r24, X
    12ba:	80 93 60 05 	sts	0x0560, r24	; 0x800560 <display_backlight_brightness>
    12be:	ef 5f       	subi	r30, 0xFF	; 255
                }
                // Time (optionnel - skip)
                if (pos < uart_buffer_index) {
    12c0:	80 91 9f 05 	lds	r24, 0x059F	; 0x80059f <uart_buffer_index>
    12c4:	e8 17       	cp	r30, r24
    12c6:	e0 f4       	brcc	.+56     	; 0x1300 <_Z18processUartCommandv+0x342>
                    uint8_t time_len = uart_buffer[pos++];
    12c8:	81 e0       	ldi	r24, 0x01	; 1
    12ca:	8e 0f       	add	r24, r30
    12cc:	f0 e0       	ldi	r31, 0x00	; 0
    12ce:	e0 56       	subi	r30, 0x60	; 96
    12d0:	fa 4f       	sbci	r31, 0xFA	; 250
    12d2:	e0 81       	ld	r30, Z
                    if (time_len > 0 && pos + time_len <= uart_buffer_index) {
    12d4:	ee 23       	and	r30, r30
    12d6:	61 f0       	breq	.+24     	; 0x12f0 <_Z18processUartCommandv+0x332>
    12d8:	4e 2f       	mov	r20, r30
    12da:	50 e0       	ldi	r21, 0x00	; 0
    12dc:	48 0f       	add	r20, r24
    12de:	51 1d       	adc	r21, r1
    12e0:	20 91 9f 05 	lds	r18, 0x059F	; 0x80059f <uart_buffer_index>
    12e4:	30 e0       	ldi	r19, 0x00	; 0
    12e6:	24 17       	cp	r18, r20
    12e8:	35 07       	cpc	r19, r21
    12ea:	24 f4       	brge	.+8      	; 0x12f4 <_Z18processUartCommandv+0x336>
    12ec:	90 e0       	ldi	r25, 0x00	; 0
    12ee:	03 c0       	rjmp	.+6      	; 0x12f6 <_Z18processUartCommandv+0x338>
    12f0:	90 e0       	ldi	r25, 0x00	; 0
    12f2:	01 c0       	rjmp	.+2      	; 0x12f6 <_Z18processUartCommandv+0x338>
    12f4:	91 e0       	ldi	r25, 0x01	; 1
    12f6:	99 23       	and	r25, r25
    12f8:	11 f0       	breq	.+4      	; 0x12fe <_Z18processUartCommandv+0x340>
                        pos += time_len;
    12fa:	e8 0f       	add	r30, r24
    12fc:	01 c0       	rjmp	.+2      	; 0x1300 <_Z18processUartCommandv+0x342>
                if (pos < uart_buffer_index) {
                    display_backlight_brightness = uart_buffer[pos++];
                }
                // Time (optionnel - skip)
                if (pos < uart_buffer_index) {
                    uint8_t time_len = uart_buffer[pos++];
    12fe:	e8 2f       	mov	r30, r24
                    if (time_len > 0 && pos + time_len <= uart_buffer_index) {
                        pos += time_len;
                    }
                }
                // Appareil connecté (optionnel)
                if (pos < uart_buffer_index) {
    1300:	80 91 9f 05 	lds	r24, 0x059F	; 0x80059f <uart_buffer_index>
    1304:	e8 17       	cp	r30, r24
    1306:	68 f5       	brcc	.+90     	; 0x1362 <_Z18processUartCommandv+0x3a4>
                    uint8_t device_len = uart_buffer[pos++];
    1308:	61 e0       	ldi	r22, 0x01	; 1
    130a:	6e 0f       	add	r22, r30
    130c:	f0 e0       	ldi	r31, 0x00	; 0
    130e:	e0 56       	subi	r30, 0x60	; 96
    1310:	fa 4f       	sbci	r31, 0xFA	; 250
    1312:	00 81       	ld	r16, Z
                    if (device_len > 0 && device_len < 32 && pos + device_len <= uart_buffer_index) {
    1314:	8f ef       	ldi	r24, 0xFF	; 255
    1316:	80 0f       	add	r24, r16
    1318:	8f 31       	cpi	r24, 0x1F	; 31
    131a:	60 f4       	brcc	.+24     	; 0x1334 <_Z18processUartCommandv+0x376>
    131c:	20 2f       	mov	r18, r16
    131e:	30 e0       	ldi	r19, 0x00	; 0
    1320:	26 0f       	add	r18, r22
    1322:	31 1d       	adc	r19, r1
    1324:	80 91 9f 05 	lds	r24, 0x059F	; 0x80059f <uart_buffer_index>
    1328:	90 e0       	ldi	r25, 0x00	; 0
    132a:	82 17       	cp	r24, r18
    132c:	93 07       	cpc	r25, r19
    132e:	24 f4       	brge	.+8      	; 0x1338 <_Z18processUartCommandv+0x37a>
    1330:	80 e0       	ldi	r24, 0x00	; 0
    1332:	03 c0       	rjmp	.+6      	; 0x133a <_Z18processUartCommandv+0x37c>
    1334:	80 e0       	ldi	r24, 0x00	; 0
    1336:	01 c0       	rjmp	.+2      	; 0x133a <_Z18processUartCommandv+0x37c>
    1338:	81 e0       	ldi	r24, 0x01	; 1
    133a:	88 23       	and	r24, r24
    133c:	71 f0       	breq	.+28     	; 0x135a <_Z18processUartCommandv+0x39c>
                        memcpy((void*)display_connected_device, (const void*)&uart_buffer[pos], device_len);
    133e:	10 e0       	ldi	r17, 0x00	; 0
    1340:	70 e0       	ldi	r23, 0x00	; 0
    1342:	60 56       	subi	r22, 0x60	; 96
    1344:	7a 4f       	sbci	r23, 0xFA	; 250
    1346:	a8 01       	movw	r20, r16
    1348:	81 e6       	ldi	r24, 0x61	; 97
    134a:	95 e0       	ldi	r25, 0x05	; 5
    134c:	0e 94 88 0c 	call	0x1910	; 0x1910 <memcpy>
                        display_connected_device[device_len] = '\0';
    1350:	f8 01       	movw	r30, r16
    1352:	ef 59       	subi	r30, 0x9F	; 159
    1354:	fa 4f       	sbci	r31, 0xFA	; 250
    1356:	10 82       	st	Z, r1
    1358:	04 c0       	rjmp	.+8      	; 0x1362 <_Z18processUartCommandv+0x3a4>
                        pos += device_len;
                    } else if (device_len == 0) {
    135a:	01 11       	cpse	r16, r1
    135c:	02 c0       	rjmp	.+4      	; 0x1362 <_Z18processUartCommandv+0x3a4>
                        display_connected_device[0] = '\0';
    135e:	10 92 61 05 	sts	0x0561, r1	; 0x800561 <display_connected_device>
                    }
                }
                
                // Mise à jour partielle (force last_key et device à chaque réception UART)
                display_update_partial(1);
    1362:	81 e0       	ldi	r24, 0x01	; 1
    1364:	0e 94 14 03 	call	0x628	; 0x628 <_Z22display_update_partialh>
    1368:	57 c1       	rjmp	.+686    	; 0x1618 <_Z18processUartCommandv+0x65a>
            }
            break;
            
        case CMD_SET_ATMEGA_DEBUG:
            if (uart_buffer_index >= 2) {
    136a:	80 91 9f 05 	lds	r24, 0x059F	; 0x80059f <uart_buffer_index>
    136e:	82 30       	cpi	r24, 0x02	; 2
    1370:	08 f4       	brcc	.+2      	; 0x1374 <_Z18processUartCommandv+0x3b6>
    1372:	52 c1       	rjmp	.+676    	; 0x1618 <_Z18processUartCommandv+0x65a>
                debug_enabled = uart_buffer[1];
    1374:	80 91 a1 05 	lds	r24, 0x05A1	; 0x8005a1 <uart_buffer+0x1>
    1378:	80 93 5e 05 	sts	0x055E, r24	; 0x80055e <debug_enabled>
                LOG_INFO("[UART] Debug ");
    137c:	80 91 5e 05 	lds	r24, 0x055E	; 0x80055e <debug_enabled>
    1380:	88 23       	and	r24, r24
    1382:	31 f0       	breq	.+12     	; 0x1390 <_Z18processUartCommandv+0x3d2>
    1384:	80 91 06 01 	lds	r24, 0x0106	; 0x800106 <log_level>
    1388:	82 30       	cpi	r24, 0x02	; 2
    138a:	20 f4       	brcc	.+8      	; 0x1394 <_Z18processUartCommandv+0x3d6>
    138c:	80 e0       	ldi	r24, 0x00	; 0
    138e:	03 c0       	rjmp	.+6      	; 0x1396 <_Z18processUartCommandv+0x3d8>
    1390:	80 e0       	ldi	r24, 0x00	; 0
    1392:	01 c0       	rjmp	.+2      	; 0x1396 <_Z18processUartCommandv+0x3d8>
    1394:	81 e0       	ldi	r24, 0x01	; 1
    1396:	88 23       	and	r24, r24
    1398:	21 f0       	breq	.+8      	; 0x13a2 <_Z18processUartCommandv+0x3e4>
    139a:	8c e6       	ldi	r24, 0x6C	; 108
    139c:	92 e0       	ldi	r25, 0x02	; 2
    139e:	0e 94 4f 06 	call	0xc9e	; 0xc9e <_Z11debug_printPKc>
                if (debug_enabled) {
    13a2:	80 91 5e 05 	lds	r24, 0x055E	; 0x80055e <debug_enabled>
    13a6:	88 23       	and	r24, r24
    13a8:	a9 f0       	breq	.+42     	; 0x13d4 <_Z18processUartCommandv+0x416>
                    LOG_INFO("enabled\r\n");
    13aa:	80 91 5e 05 	lds	r24, 0x055E	; 0x80055e <debug_enabled>
    13ae:	88 23       	and	r24, r24
    13b0:	31 f0       	breq	.+12     	; 0x13be <_Z18processUartCommandv+0x400>
    13b2:	80 91 06 01 	lds	r24, 0x0106	; 0x800106 <log_level>
    13b6:	82 30       	cpi	r24, 0x02	; 2
    13b8:	20 f4       	brcc	.+8      	; 0x13c2 <_Z18processUartCommandv+0x404>
    13ba:	80 e0       	ldi	r24, 0x00	; 0
    13bc:	03 c0       	rjmp	.+6      	; 0x13c4 <_Z18processUartCommandv+0x406>
    13be:	80 e0       	ldi	r24, 0x00	; 0
    13c0:	01 c0       	rjmp	.+2      	; 0x13c4 <_Z18processUartCommandv+0x406>
    13c2:	81 e0       	ldi	r24, 0x01	; 1
    13c4:	88 23       	and	r24, r24
    13c6:	09 f4       	brne	.+2      	; 0x13ca <_Z18processUartCommandv+0x40c>
    13c8:	27 c1       	rjmp	.+590    	; 0x1618 <_Z18processUartCommandv+0x65a>
    13ca:	82 ea       	ldi	r24, 0xA2	; 162
    13cc:	93 e0       	ldi	r25, 0x03	; 3
    13ce:	0e 94 4f 06 	call	0xc9e	; 0xc9e <_Z11debug_printPKc>
    13d2:	22 c1       	rjmp	.+580    	; 0x1618 <_Z18processUartCommandv+0x65a>
                } else {
                    LOG_INFO("disabled\r\n");
    13d4:	80 91 5e 05 	lds	r24, 0x055E	; 0x80055e <debug_enabled>
    13d8:	88 23       	and	r24, r24
    13da:	31 f0       	breq	.+12     	; 0x13e8 <_Z18processUartCommandv+0x42a>
    13dc:	80 91 06 01 	lds	r24, 0x0106	; 0x800106 <log_level>
    13e0:	82 30       	cpi	r24, 0x02	; 2
    13e2:	20 f4       	brcc	.+8      	; 0x13ec <_Z18processUartCommandv+0x42e>
    13e4:	80 e0       	ldi	r24, 0x00	; 0
    13e6:	03 c0       	rjmp	.+6      	; 0x13ee <_Z18processUartCommandv+0x430>
    13e8:	80 e0       	ldi	r24, 0x00	; 0
    13ea:	01 c0       	rjmp	.+2      	; 0x13ee <_Z18processUartCommandv+0x430>
    13ec:	81 e0       	ldi	r24, 0x01	; 1
    13ee:	88 23       	and	r24, r24
    13f0:	09 f4       	brne	.+2      	; 0x13f4 <_Z18processUartCommandv+0x436>
    13f2:	12 c1       	rjmp	.+548    	; 0x1618 <_Z18processUartCommandv+0x65a>
    13f4:	8a e7       	ldi	r24, 0x7A	; 122
    13f6:	92 e0       	ldi	r25, 0x02	; 2
    13f8:	0e 94 4f 06 	call	0xc9e	; 0xc9e <_Z11debug_printPKc>
    13fc:	0d c1       	rjmp	.+538    	; 0x1618 <_Z18processUartCommandv+0x65a>
                }
            }
            break;
            
        case CMD_SET_ATMEGA_LOG_LEVEL:
            if (uart_buffer_index >= 2) {
    13fe:	80 91 9f 05 	lds	r24, 0x059F	; 0x80059f <uart_buffer_index>
    1402:	82 30       	cpi	r24, 0x02	; 2
    1404:	08 f4       	brcc	.+2      	; 0x1408 <_Z18processUartCommandv+0x44a>
    1406:	08 c1       	rjmp	.+528    	; 0x1618 <_Z18processUartCommandv+0x65a>
                log_level = uart_buffer[1];
    1408:	80 91 a1 05 	lds	r24, 0x05A1	; 0x8005a1 <uart_buffer+0x1>
    140c:	80 93 06 01 	sts	0x0106, r24	; 0x800106 <log_level>
                if (log_level > 3) log_level = 3;
    1410:	80 91 06 01 	lds	r24, 0x0106	; 0x800106 <log_level>
    1414:	84 30       	cpi	r24, 0x04	; 4
    1416:	18 f0       	brcs	.+6      	; 0x141e <_Z18processUartCommandv+0x460>
    1418:	83 e0       	ldi	r24, 0x03	; 3
    141a:	80 93 06 01 	sts	0x0106, r24	; 0x800106 <log_level>
                LOG_INFO("[UART] Log level set to: ");
    141e:	80 91 5e 05 	lds	r24, 0x055E	; 0x80055e <debug_enabled>
    1422:	88 23       	and	r24, r24
    1424:	31 f0       	breq	.+12     	; 0x1432 <_Z18processUartCommandv+0x474>
    1426:	80 91 06 01 	lds	r24, 0x0106	; 0x800106 <log_level>
    142a:	82 30       	cpi	r24, 0x02	; 2
    142c:	20 f4       	brcc	.+8      	; 0x1436 <_Z18processUartCommandv+0x478>
    142e:	80 e0       	ldi	r24, 0x00	; 0
    1430:	03 c0       	rjmp	.+6      	; 0x1438 <_Z18processUartCommandv+0x47a>
    1432:	80 e0       	ldi	r24, 0x00	; 0
    1434:	01 c0       	rjmp	.+2      	; 0x1438 <_Z18processUartCommandv+0x47a>
    1436:	81 e0       	ldi	r24, 0x01	; 1
    1438:	88 23       	and	r24, r24
    143a:	21 f0       	breq	.+8      	; 0x1444 <_Z18processUartCommandv+0x486>
    143c:	85 e8       	ldi	r24, 0x85	; 133
    143e:	92 e0       	ldi	r25, 0x02	; 2
    1440:	0e 94 4f 06 	call	0xc9e	; 0xc9e <_Z11debug_printPKc>
                debug_print_dec(log_level);
    1444:	80 91 06 01 	lds	r24, 0x0106	; 0x800106 <log_level>
    1448:	90 e0       	ldi	r25, 0x00	; 0
    144a:	0e 94 f3 06 	call	0xde6	; 0xde6 <_Z15debug_print_decj>
                debug_print("\r\n");
    144e:	82 eb       	ldi	r24, 0xB2	; 178
    1450:	93 e0       	ldi	r25, 0x03	; 3
    1452:	0e 94 4f 06 	call	0xc9e	; 0xc9e <_Z11debug_printPKc>
    1456:	e0 c0       	rjmp	.+448    	; 0x1618 <_Z18processUartCommandv+0x65a>
            }
            break;
            
        case CMD_SET_DISPLAY_IMAGE:
            if (uart_buffer_index >= 3) {
    1458:	80 91 9f 05 	lds	r24, 0x059F	; 0x80059f <uart_buffer_index>
    145c:	83 30       	cpi	r24, 0x03	; 3
    145e:	08 f4       	brcc	.+2      	; 0x1462 <_Z18processUartCommandv+0x4a4>
    1460:	db c0       	rjmp	.+438    	; 0x1618 <_Z18processUartCommandv+0x65a>
                image_expected_size = uart_buffer[1] | (uart_buffer[2] << 8);
    1462:	e0 ea       	ldi	r30, 0xA0	; 160
    1464:	f5 e0       	ldi	r31, 0x05	; 5
    1466:	21 81       	ldd	r18, Z+1	; 0x01
    1468:	82 81       	ldd	r24, Z+2	; 0x02
    146a:	90 e0       	ldi	r25, 0x00	; 0
    146c:	98 2f       	mov	r25, r24
    146e:	88 27       	eor	r24, r24
    1470:	82 2b       	or	r24, r18
    1472:	90 93 99 05 	sts	0x0599, r25	; 0x800599 <image_expected_size+0x1>
    1476:	80 93 98 05 	sts	0x0598, r24	; 0x800598 <image_expected_size>
                image_received_bytes = 0;
    147a:	10 92 97 05 	sts	0x0597, r1	; 0x800597 <image_received_bytes+0x1>
    147e:	10 92 96 05 	sts	0x0596, r1	; 0x800596 <image_received_bytes>
                image_chunk_index = 0;
    1482:	10 92 95 05 	sts	0x0595, r1	; 0x800595 <image_chunk_index+0x1>
    1486:	10 92 94 05 	sts	0x0594, r1	; 0x800594 <image_chunk_index>
                image_receiving = 1;
    148a:	81 e0       	ldi	r24, 0x01	; 1
    148c:	80 93 93 05 	sts	0x0593, r24	; 0x800593 <image_receiving>
                LOG_INFO("[UART] Starting image reception, size: ");
    1490:	80 91 5e 05 	lds	r24, 0x055E	; 0x80055e <debug_enabled>
    1494:	88 23       	and	r24, r24
    1496:	31 f0       	breq	.+12     	; 0x14a4 <_Z18processUartCommandv+0x4e6>
    1498:	80 91 06 01 	lds	r24, 0x0106	; 0x800106 <log_level>
    149c:	82 30       	cpi	r24, 0x02	; 2
    149e:	20 f4       	brcc	.+8      	; 0x14a8 <_Z18processUartCommandv+0x4ea>
    14a0:	80 e0       	ldi	r24, 0x00	; 0
    14a2:	03 c0       	rjmp	.+6      	; 0x14aa <_Z18processUartCommandv+0x4ec>
    14a4:	80 e0       	ldi	r24, 0x00	; 0
    14a6:	01 c0       	rjmp	.+2      	; 0x14aa <_Z18processUartCommandv+0x4ec>
    14a8:	81 e0       	ldi	r24, 0x01	; 1
    14aa:	88 23       	and	r24, r24
    14ac:	21 f0       	breq	.+8      	; 0x14b6 <_Z18processUartCommandv+0x4f8>
    14ae:	8f e9       	ldi	r24, 0x9F	; 159
    14b0:	92 e0       	ldi	r25, 0x02	; 2
    14b2:	0e 94 4f 06 	call	0xc9e	; 0xc9e <_Z11debug_printPKc>
                debug_print_dec(image_expected_size);
    14b6:	80 91 98 05 	lds	r24, 0x0598	; 0x800598 <image_expected_size>
    14ba:	90 91 99 05 	lds	r25, 0x0599	; 0x800599 <image_expected_size+0x1>
    14be:	0e 94 f3 06 	call	0xde6	; 0xde6 <_Z15debug_print_decj>
                debug_print("\r\n");
    14c2:	82 eb       	ldi	r24, 0xB2	; 178
    14c4:	93 e0       	ldi	r25, 0x03	; 3
    14c6:	0e 94 4f 06 	call	0xc9e	; 0xc9e <_Z11debug_printPKc>
    14ca:	a6 c0       	rjmp	.+332    	; 0x1618 <_Z18processUartCommandv+0x65a>
            }
            break;
            
        case CMD_SET_DISPLAY_IMAGE_CHUNK:
            if (image_receiving && uart_buffer_index >= 4) {
    14cc:	80 91 93 05 	lds	r24, 0x0593	; 0x800593 <image_receiving>
    14d0:	88 23       	and	r24, r24
    14d2:	31 f0       	breq	.+12     	; 0x14e0 <_Z18processUartCommandv+0x522>
    14d4:	80 91 9f 05 	lds	r24, 0x059F	; 0x80059f <uart_buffer_index>
    14d8:	84 30       	cpi	r24, 0x04	; 4
    14da:	20 f4       	brcc	.+8      	; 0x14e4 <_Z18processUartCommandv+0x526>
    14dc:	f1 2c       	mov	r15, r1
    14de:	04 c0       	rjmp	.+8      	; 0x14e8 <_Z18processUartCommandv+0x52a>
    14e0:	f1 2c       	mov	r15, r1
    14e2:	02 c0       	rjmp	.+4      	; 0x14e8 <_Z18processUartCommandv+0x52a>
    14e4:	ff 24       	eor	r15, r15
    14e6:	f3 94       	inc	r15
    14e8:	ff 20       	and	r15, r15
    14ea:	09 f4       	brne	.+2      	; 0x14ee <_Z18processUartCommandv+0x530>
    14ec:	95 c0       	rjmp	.+298    	; 0x1618 <_Z18processUartCommandv+0x65a>
                uint16_t chunk_idx = uart_buffer[1] | (uart_buffer[2] << 8);
    14ee:	e0 ea       	ldi	r30, 0xA0	; 160
    14f0:	f5 e0       	ldi	r31, 0x05	; 5
    14f2:	21 81       	ldd	r18, Z+1	; 0x01
    14f4:	82 81       	ldd	r24, Z+2	; 0x02
    14f6:	90 e0       	ldi	r25, 0x00	; 0
    14f8:	98 2f       	mov	r25, r24
    14fa:	88 27       	eor	r24, r24
    14fc:	82 2b       	or	r24, r18
                uint8_t chunk_size = uart_buffer[3];
    14fe:	03 81       	ldd	r16, Z+3	; 0x03
                
                if (chunk_size > 0 && chunk_size <= IMAGE_CHUNK_SIZE && 
    1500:	2f ef       	ldi	r18, 0xFF	; 255
    1502:	20 0f       	add	r18, r16
    1504:	20 34       	cpi	r18, 0x40	; 64
    1506:	60 f4       	brcc	.+24     	; 0x1520 <_Z18processUartCommandv+0x562>
                    (uart_buffer_index - 4) >= chunk_size) {
    1508:	20 91 9f 05 	lds	r18, 0x059F	; 0x80059f <uart_buffer_index>
    150c:	30 e0       	ldi	r19, 0x00	; 0
    150e:	24 50       	subi	r18, 0x04	; 4
    1510:	31 09       	sbc	r19, r1
    1512:	40 2f       	mov	r20, r16
    1514:	50 e0       	ldi	r21, 0x00	; 0
        case CMD_SET_DISPLAY_IMAGE_CHUNK:
            if (image_receiving && uart_buffer_index >= 4) {
                uint16_t chunk_idx = uart_buffer[1] | (uart_buffer[2] << 8);
                uint8_t chunk_size = uart_buffer[3];
                
                if (chunk_size > 0 && chunk_size <= IMAGE_CHUNK_SIZE && 
    1516:	24 17       	cp	r18, r20
    1518:	35 07       	cpc	r19, r21
    151a:	1c f4       	brge	.+6      	; 0x1522 <_Z18processUartCommandv+0x564>
    151c:	f1 2c       	mov	r15, r1
    151e:	01 c0       	rjmp	.+2      	; 0x1522 <_Z18processUartCommandv+0x564>
    1520:	f1 2c       	mov	r15, r1
    1522:	ff 20       	and	r15, r15
    1524:	09 f4       	brne	.+2      	; 0x1528 <_Z18processUartCommandv+0x56a>
    1526:	78 c0       	rjmp	.+240    	; 0x1618 <_Z18processUartCommandv+0x65a>
                    (uart_buffer_index - 4) >= chunk_size) {
                    
                    // Calculer la position dans l'image
                    uint16_t byte_offset = chunk_idx * IMAGE_CHUNK_SIZE;
    1528:	9c 01       	movw	r18, r24
    152a:	00 24       	eor	r0, r0
    152c:	36 95       	lsr	r19
    152e:	27 95       	ror	r18
    1530:	07 94       	ror	r0
    1532:	36 95       	lsr	r19
    1534:	27 95       	ror	r18
    1536:	07 94       	ror	r0
    1538:	32 2f       	mov	r19, r18
    153a:	20 2d       	mov	r18, r0
                    uint16_t pixel_offset = byte_offset / 2;
    153c:	c9 01       	movw	r24, r18
    153e:	96 95       	lsr	r25
    1540:	87 95       	ror	r24
                    uint16_t x = pixel_offset % ST7789_WIDTH;
    1542:	60 e4       	ldi	r22, 0x40	; 64
    1544:	71 e0       	ldi	r23, 0x01	; 1
    1546:	0e 94 5f 0c 	call	0x18be	; 0x18be <__udivmodhi4>
    154a:	fc 01       	movw	r30, r24
                    uint16_t y = pixel_offset / ST7789_WIDTH;
    154c:	c9 01       	movw	r24, r18
    154e:	60 e8       	ldi	r22, 0x80	; 128
    1550:	72 e0       	ldi	r23, 0x02	; 2
    1552:	0e 94 5f 0c 	call	0x18be	; 0x18be <__udivmodhi4>
                    uint16_t pixels_in_chunk = chunk_size / 2;
    1556:	80 2f       	mov	r24, r16
    1558:	86 95       	lsr	r24
                    uint16_t end_x = x + pixels_in_chunk;
    155a:	af 01       	movw	r20, r30
    155c:	48 0f       	add	r20, r24
    155e:	51 1d       	adc	r21, r1
                    
                    if (end_x > ST7789_WIDTH) {
    1560:	41 34       	cpi	r20, 0x41	; 65
    1562:	81 e0       	ldi	r24, 0x01	; 1
    1564:	58 07       	cpc	r21, r24
    1566:	10 f0       	brcs	.+4      	; 0x156c <_Z18processUartCommandv+0x5ae>
                        end_x = ST7789_WIDTH;
    1568:	40 e4       	ldi	r20, 0x40	; 64
    156a:	51 e0       	ldi	r21, 0x01	; 1
                        pixels_in_chunk = ST7789_WIDTH - x;
                    }
                    
                    // Dessiner le chunk sur l'écran
                    st7789_set_window(x, y, end_x - 1, y);
    156c:	41 50       	subi	r20, 0x01	; 1
    156e:	51 09       	sbc	r21, r1
    1570:	9b 01       	movw	r18, r22
    1572:	cf 01       	movw	r24, r30
    1574:	0e 94 d8 00 	call	0x1b0	; 0x1b0 <_Z17st7789_set_windowjjjj>
                    ST7789_CS_PORT &= ~(1 << ST7789_CS_PIN);
    1578:	85 b1       	in	r24, 0x05	; 5
    157a:	8b 7f       	andi	r24, 0xFB	; 251
    157c:	85 b9       	out	0x05, r24	; 5
                    ST7789_DC_PORT |= (1 << ST7789_DC_PIN);
    157e:	85 b1       	in	r24, 0x05	; 5
    1580:	82 60       	ori	r24, 0x02	; 2
    1582:	85 b9       	out	0x05, r24	; 5
                    for (uint8_t i = 0; i < chunk_size; i++) {
    1584:	10 e0       	ldi	r17, 0x00	; 0
    1586:	10 17       	cp	r17, r16
    1588:	48 f4       	brcc	.+18     	; 0x159c <_Z18processUartCommandv+0x5de>
                        spi_write(uart_buffer[4 + i]);
    158a:	e1 2f       	mov	r30, r17
    158c:	f0 e0       	ldi	r31, 0x00	; 0
    158e:	ec 55       	subi	r30, 0x5C	; 92
    1590:	fa 4f       	sbci	r31, 0xFA	; 250
    1592:	80 81       	ld	r24, Z
    1594:	0e 94 bb 00 	call	0x176	; 0x176 <_Z9spi_writeh>
                    
                    // Dessiner le chunk sur l'écran
                    st7789_set_window(x, y, end_x - 1, y);
                    ST7789_CS_PORT &= ~(1 << ST7789_CS_PIN);
                    ST7789_DC_PORT |= (1 << ST7789_DC_PIN);
                    for (uint8_t i = 0; i < chunk_size; i++) {
    1598:	1f 5f       	subi	r17, 0xFF	; 255
    159a:	f5 cf       	rjmp	.-22     	; 0x1586 <_Z18processUartCommandv+0x5c8>
                        spi_write(uart_buffer[4 + i]);
                    }
                    ST7789_CS_PORT |= (1 << ST7789_CS_PIN);
    159c:	85 b1       	in	r24, 0x05	; 5
    159e:	84 60       	ori	r24, 0x04	; 4
    15a0:	85 b9       	out	0x05, r24	; 5
                    
                    image_received_bytes += chunk_size;
    15a2:	80 91 96 05 	lds	r24, 0x0596	; 0x800596 <image_received_bytes>
    15a6:	90 91 97 05 	lds	r25, 0x0597	; 0x800597 <image_received_bytes+0x1>
    15aa:	80 0f       	add	r24, r16
    15ac:	91 1d       	adc	r25, r1
    15ae:	90 93 97 05 	sts	0x0597, r25	; 0x800597 <image_received_bytes+0x1>
    15b2:	80 93 96 05 	sts	0x0596, r24	; 0x800596 <image_received_bytes>
                    image_chunk_index++;
    15b6:	80 91 94 05 	lds	r24, 0x0594	; 0x800594 <image_chunk_index>
    15ba:	90 91 95 05 	lds	r25, 0x0595	; 0x800595 <image_chunk_index+0x1>
    15be:	01 96       	adiw	r24, 0x01	; 1
    15c0:	90 93 95 05 	sts	0x0595, r25	; 0x800595 <image_chunk_index+0x1>
    15c4:	80 93 94 05 	sts	0x0594, r24	; 0x800594 <image_chunk_index>
                    
                    if (image_received_bytes >= image_expected_size) {
    15c8:	20 91 96 05 	lds	r18, 0x0596	; 0x800596 <image_received_bytes>
    15cc:	30 91 97 05 	lds	r19, 0x0597	; 0x800597 <image_received_bytes+0x1>
    15d0:	80 91 98 05 	lds	r24, 0x0598	; 0x800598 <image_expected_size>
    15d4:	90 91 99 05 	lds	r25, 0x0599	; 0x800599 <image_expected_size+0x1>
    15d8:	28 17       	cp	r18, r24
    15da:	39 07       	cpc	r19, r25
    15dc:	e8 f0       	brcs	.+58     	; 0x1618 <_Z18processUartCommandv+0x65a>
                        image_receiving = 0;
    15de:	10 92 93 05 	sts	0x0593, r1	; 0x800593 <image_receiving>
                        LOG_INFO("[UART] Image reception complete, ");
    15e2:	80 91 5e 05 	lds	r24, 0x055E	; 0x80055e <debug_enabled>
    15e6:	88 23       	and	r24, r24
    15e8:	31 f0       	breq	.+12     	; 0x15f6 <_Z18processUartCommandv+0x638>
    15ea:	80 91 06 01 	lds	r24, 0x0106	; 0x800106 <log_level>
    15ee:	82 30       	cpi	r24, 0x02	; 2
    15f0:	18 f4       	brcc	.+6      	; 0x15f8 <_Z18processUartCommandv+0x63a>
    15f2:	f1 2c       	mov	r15, r1
    15f4:	01 c0       	rjmp	.+2      	; 0x15f8 <_Z18processUartCommandv+0x63a>
    15f6:	f1 2c       	mov	r15, r1
    15f8:	ff 20       	and	r15, r15
    15fa:	21 f0       	breq	.+8      	; 0x1604 <_Z18processUartCommandv+0x646>
    15fc:	87 ec       	ldi	r24, 0xC7	; 199
    15fe:	92 e0       	ldi	r25, 0x02	; 2
    1600:	0e 94 4f 06 	call	0xc9e	; 0xc9e <_Z11debug_printPKc>
                        debug_print_dec(image_received_bytes);
    1604:	80 91 96 05 	lds	r24, 0x0596	; 0x800596 <image_received_bytes>
    1608:	90 91 97 05 	lds	r25, 0x0597	; 0x800597 <image_received_bytes+0x1>
    160c:	0e 94 f3 06 	call	0xde6	; 0xde6 <_Z15debug_print_decj>
                        debug_print(" bytes\r\n");
    1610:	89 ee       	ldi	r24, 0xE9	; 233
    1612:	92 e0       	ldi	r25, 0x02	; 2
    1614:	0e 94 4f 06 	call	0xc9e	; 0xc9e <_Z11debug_printPKc>
            }
            break;
    }
    
    // Réinitialiser le buffer et le flag de commande en attente
    uart_buffer_index = 0;
    1618:	10 92 9f 05 	sts	0x059F, r1	; 0x80059f <uart_buffer_index>
    uart_command = 0;
    161c:	10 92 9d 05 	sts	0x059D, r1	; 0x80059d <uart_command>
    uart_cmd_pending = 0;
    1620:	10 92 9e 05 	sts	0x059E, r1	; 0x80059e <uart_cmd_pending>
}
    1624:	0f 90       	pop	r0
    1626:	0f 90       	pop	r0
    1628:	df 91       	pop	r29
    162a:	cf 91       	pop	r28
    162c:	1f 91       	pop	r17
    162e:	0f 91       	pop	r16
    1630:	ff 90       	pop	r15
    1632:	ef 90       	pop	r14
    1634:	08 95       	ret

00001636 <main>:
}

int main(void) {
    // CRITIQUE: Désactiver le watchdog timer au démarrage (si activé)
    // Le watchdog peut causer des resets si non désactivé
    MCUSR &= ~(1 << WDRF);  // Clear watchdog reset flag
    1636:	84 b7       	in	r24, 0x34	; 52
    1638:	87 7f       	andi	r24, 0xF7	; 247
    163a:	84 bf       	out	0x34, r24	; 52
				"out __SREG__,__tmp_reg__"   "\n\t"
				: [TEMPREG] "=d" (temp_reg)
				: [WDTREG]  "n"  (_SFR_MEM_ADDR(_WD_CONTROL_REG)),
				[WDCE_WDE]  "n"  ((uint8_t)(_BV(_WD_CHANGE_BIT) | _BV(WDE)))
				: "r0"
		);
    163c:	0f b6       	in	r0, 0x3f	; 63
    163e:	f8 94       	cli
    1640:	a8 95       	wdr
    1642:	80 91 60 00 	lds	r24, 0x0060	; 0x800060 <__TEXT_REGION_LENGTH__+0x7f8060>
    1646:	88 61       	ori	r24, 0x18	; 24
    1648:	80 93 60 00 	sts	0x0060, r24	; 0x800060 <__TEXT_REGION_LENGTH__+0x7f8060>
    164c:	10 92 60 00 	sts	0x0060, r1	; 0x800060 <__TEXT_REGION_LENGTH__+0x7f8060>
    1650:	0f be       	out	0x3f, r0	; 63
    1652:	8f e4       	ldi	r24, 0x4F	; 79
    1654:	93 ec       	ldi	r25, 0xC3	; 195
    1656:	01 97       	sbiw	r24, 0x01	; 1
    1658:	f1 f7       	brne	.-4      	; 0x1656 <main+0x20>
    165a:	00 c0       	rjmp	.+0      	; 0x165c <main+0x26>
    165c:	00 00       	nop
    
    // Délai initial pour stabilisation de l'alimentation
    _delay_ms(200);  // Délai plus long pour stabilisation au boot
    
    // IMPORTANT: Initialiser l'UART EN PREMIER pour que debug_print() fonctionne
    uart_init();
    165e:	0e 94 bf 02 	call	0x57e	; 0x57e <_Z9uart_initv>
    1662:	87 ea       	ldi	r24, 0xA7	; 167
    1664:	91 e6       	ldi	r25, 0x61	; 97
    1666:	01 97       	sbiw	r24, 0x01	; 1
    1668:	f1 f7       	brne	.-4      	; 0x1666 <main+0x30>
    166a:	00 c0       	rjmp	.+0      	; 0x166c <main+0x36>
    166c:	00 00       	nop
    _delay_ms(100);  // Attendre que l'UART soit stable
    
    // Initialiser le débogage (utilise maintenant l'UART principal)
    debug_init();
    debug_print("\r\n=== ATmega328P Light Controller ===\r\n");
    166e:	82 ef       	ldi	r24, 0xF2	; 242
    1670:	92 e0       	ldi	r25, 0x02	; 2
    1672:	0e 94 4f 06 	call	0xc9e	; 0xc9e <_Z11debug_printPKc>
    debug_print("UART Baud: 115200\r\n");
    1676:	8a e1       	ldi	r24, 0x1A	; 26
    1678:	93 e0       	ldi	r25, 0x03	; 3
    167a:	0e 94 4f 06 	call	0xc9e	; 0xc9e <_Z11debug_printPKc>
    debug_print("Boot sequence started...\r\n");
    167e:	8e e2       	ldi	r24, 0x2E	; 46
    1680:	93 e0       	ldi	r25, 0x03	; 3
    1682:	0e 94 4f 06 	call	0xc9e	; 0xc9e <_Z11debug_printPKc>
    
    // Initialiser les périphériques
    adc_init();
    1686:	0e 94 7f 00 	call	0xfe	; 0xfe <_Z8adc_initv>
    debug_print("ADC initialized\r\n");
    168a:	89 e4       	ldi	r24, 0x49	; 73
    168c:	93 e0       	ldi	r25, 0x03	; 3
    168e:	0e 94 4f 06 	call	0xc9e	; 0xc9e <_Z11debug_printPKc>
    
    pwm_init();
    1692:	0e 94 94 00 	call	0x128	; 0x128 <_Z8pwm_initv>
    debug_print("PWM initialized\r\n");
    1696:	8b e5       	ldi	r24, 0x5B	; 91
    1698:	93 e0       	ldi	r25, 0x03	; 3
    169a:	0e 94 4f 06 	call	0xc9e	; 0xc9e <_Z11debug_printPKc>
    // Forcer le rétro-éclairage à fond pour les tests (LED backlight toujours ON)
    set_led_brightness(255);
    169e:	8f ef       	ldi	r24, 0xFF	; 255
    16a0:	0e 94 9d 00 	call	0x13a	; 0x13a <_Z18set_led_brightnessh>
    
    spi_init();
    16a4:	0e 94 a1 00 	call	0x142	; 0x142 <_Z8spi_initv>
    debug_print("SPI initialized\r\n");
    16a8:	8d e6       	ldi	r24, 0x6D	; 109
    16aa:	93 e0       	ldi	r25, 0x03	; 3
    16ac:	0e 94 4f 06 	call	0xc9e	; 0xc9e <_Z11debug_printPKc>
    16b0:	87 ea       	ldi	r24, 0xA7	; 167
    16b2:	91 e6       	ldi	r25, 0x61	; 97
    16b4:	01 97       	sbiw	r24, 0x01	; 1
    16b6:	f1 f7       	brne	.-4      	; 0x16b4 <main+0x7e>
    16b8:	00 c0       	rjmp	.+0      	; 0x16ba <main+0x84>
    16ba:	00 00       	nop
    
    // Délai avant initialisation de l'écran pour s'assurer que l'alimentation est stable
    _delay_ms(100);
    st7789_init();
    16bc:	0e 94 5c 06 	call	0xcb8	; 0xcb8 <_Z11st7789_initv>
    debug_print("ST7789 initialized\r\n");
    16c0:	8a e0       	ldi	r24, 0x0A	; 10
    16c2:	92 e0       	ldi	r25, 0x02	; 2
    16c4:	0e 94 4f 06 	call	0xc9e	; 0xc9e <_Z11debug_printPKc>
    
    // Initialiser les valeurs d'affichage par défaut
    strcpy((char*)display_mode, "data");
    16c8:	85 e0       	ldi	r24, 0x05	; 5
    16ca:	ef e7       	ldi	r30, 0x7F	; 127
    16cc:	f3 e0       	ldi	r31, 0x03	; 3
    16ce:	a8 e3       	ldi	r26, 0x38	; 56
    16d0:	b1 e0       	ldi	r27, 0x01	; 1
    16d2:	01 90       	ld	r0, Z+
    16d4:	0d 92       	st	X+, r0
    16d6:	8a 95       	dec	r24
    16d8:	e1 f7       	brne	.-8      	; 0x16d2 <main+0x9c>
    strcpy((char*)display_profile, "Profile 1");
    16da:	8a e0       	ldi	r24, 0x0A	; 10
    16dc:	e8 e8       	ldi	r30, 0x88	; 136
    16de:	f1 e0       	ldi	r31, 0x01	; 1
    16e0:	a8 e1       	ldi	r26, 0x18	; 24
    16e2:	b1 e0       	ldi	r27, 0x01	; 1
    16e4:	01 90       	ld	r0, Z+
    16e6:	0d 92       	st	X+, r0
    16e8:	8a 95       	dec	r24
    16ea:	e1 f7       	brne	.-8      	; 0x16e4 <main+0xae>
    // Par défaut, l'ESP32 utilise le HID BLE (pas USB), donc on affiche BLUETOOTH
    strcpy((char*)display_output_mode, "bluetooth");
    16ec:	8a e0       	ldi	r24, 0x0A	; 10
    16ee:	ee e7       	ldi	r30, 0x7E	; 126
    16f0:	f1 e0       	ldi	r31, 0x01	; 1
    16f2:	a8 e0       	ldi	r26, 0x08	; 8
    16f4:	b1 e0       	ldi	r27, 0x01	; 1
    16f6:	01 90       	ld	r0, Z+
    16f8:	0d 92       	st	X+, r0
    16fa:	8a 95       	dec	r24
    16fc:	e1 f7       	brne	.-8      	; 0x16f6 <main+0xc0>
    display_keys_count = 0;
    16fe:	10 92 92 05 	sts	0x0592, r1	; 0x800592 <display_keys_count>
    display_backlight_enabled = 1;
    1702:	81 e0       	ldi	r24, 0x01	; 1
    1704:	80 93 91 05 	sts	0x0591, r24	; 0x800591 <display_backlight_enabled>
    display_backlight_brightness = 255;
    1708:	8f ef       	ldi	r24, 0xFF	; 255
    170a:	80 93 60 05 	sts	0x0560, r24	; 0x800560 <display_backlight_brightness>
    display_brightness = 128;
    170e:	80 e8       	ldi	r24, 0x80	; 128
    1710:	80 93 07 01 	sts	0x0107, r24	; 0x800107 <display_brightness>
    
    // Ne pas appeler st7789_update_display() ici - l'affichage Welcome est déjà fait dans st7789_init()
    // On attendra qu'une commande UART demande explicitement une mise à jour
    
    debug_print("UART initialized\r\n");
    1714:	84 e8       	ldi	r24, 0x84	; 132
    1716:	93 e0       	ldi	r25, 0x03	; 3
    1718:	0e 94 4f 06 	call	0xc9e	; 0xc9e <_Z11debug_printPKc>
    
    // Activer interruptions globales
    sei();
    171c:	78 94       	sei
    debug_print("Interrupts enabled\r\n");
    171e:	87 e9       	ldi	r24, 0x97	; 151
    1720:	93 e0       	ldi	r25, 0x03	; 3
    1722:	0e 94 4f 06 	call	0xc9e	; 0xc9e <_Z11debug_printPKc>
    debug_print("Ready!\r\n");
    1726:	8c ea       	ldi	r24, 0xAC	; 172
    1728:	93 e0       	ldi	r25, 0x03	; 3
    172a:	0e 94 4f 06 	call	0xc9e	; 0xc9e <_Z11debug_printPKc>
    
    // Boucle principale - optimisée pour la réactivité
    while (1) {
        // Traiter les commandes UART (déferrées depuis l'ISR pour éviter blocage SPI)
        if (uart_cmd_pending) {
    172e:	80 91 9e 05 	lds	r24, 0x059E	; 0x80059e <uart_cmd_pending>
    1732:	81 11       	cpse	r24, r1
            processUartCommand();
    1734:	0e 94 df 07 	call	0xfbe	; 0xfbe <_Z18processUartCommandv>
        }
        
        // Lire la luminosité toutes les ~20ms (au lieu de 100ms)
        static uint8_t adc_counter = 0;
        adc_counter++;
    1738:	80 91 5d 05 	lds	r24, 0x055D	; 0x80055d <_ZZ4mainE11adc_counter>
    173c:	8f 5f       	subi	r24, 0xFF	; 255
    173e:	80 93 5d 05 	sts	0x055D, r24	; 0x80055d <_ZZ4mainE11adc_counter>
        if (adc_counter >= 5) {  // ~100ms (5 * 20ms) pour l'ADC
    1742:	85 30       	cpi	r24, 0x05	; 5
    1744:	40 f0       	brcs	.+16     	; 0x1756 <main+0x120>
            adc_counter = 0;
    1746:	10 92 5d 05 	sts	0x055D, r1	; 0x80055d <_ZZ4mainE11adc_counter>
            // Pour l'instant, on lit seulement la luminosité sans toucher au backlight
            light_level = adc_read();
    174a:	0e 94 86 00 	call	0x10c	; 0x10c <_Z8adc_readv>
    174e:	90 93 9b 05 	sts	0x059B, r25	; 0x80059b <light_level+0x1>
    1752:	80 93 9a 05 	sts	0x059A, r24	; 0x80059a <light_level>
        }
        
        // Rafraîchissement d'affichage de la lumière - toutes les ~200ms
        static uint16_t ui_counter = 0;
        static uint16_t last_shown_light_ui = 0xFFFF;  // Initialiser à une valeur invalide pour forcer le premier affichage
        ui_counter++;
    1756:	80 91 5b 05 	lds	r24, 0x055B	; 0x80055b <_ZZ4mainE10ui_counter>
    175a:	90 91 5c 05 	lds	r25, 0x055C	; 0x80055c <_ZZ4mainE10ui_counter+0x1>
    175e:	01 96       	adiw	r24, 0x01	; 1
    1760:	90 93 5c 05 	sts	0x055C, r25	; 0x80055c <_ZZ4mainE10ui_counter+0x1>
    1764:	80 93 5b 05 	sts	0x055B, r24	; 0x80055b <_ZZ4mainE10ui_counter>
        if (ui_counter >= 10) {  // ~200 ms (10 * 20 ms)
    1768:	0a 97       	sbiw	r24, 0x0a	; 10
    176a:	68 f1       	brcs	.+90     	; 0x17c6 <main+0x190>
            ui_counter = 0;
    176c:	10 92 5c 05 	sts	0x055C, r1	; 0x80055c <_ZZ4mainE10ui_counter+0x1>
    1770:	10 92 5b 05 	sts	0x055B, r1	; 0x80055b <_ZZ4mainE10ui_counter>
            uint16_t diff;
            if (light_level > last_shown_light_ui) {
    1774:	20 91 9a 05 	lds	r18, 0x059A	; 0x80059a <light_level>
    1778:	30 91 9b 05 	lds	r19, 0x059B	; 0x80059b <light_level+0x1>
    177c:	80 91 04 01 	lds	r24, 0x0104	; 0x800104 <_ZZ4mainE19last_shown_light_ui>
    1780:	90 91 05 01 	lds	r25, 0x0105	; 0x800105 <_ZZ4mainE19last_shown_light_ui+0x1>
    1784:	82 17       	cp	r24, r18
    1786:	93 07       	cpc	r25, r19
    1788:	38 f4       	brcc	.+14     	; 0x1798 <main+0x162>
                diff = light_level - last_shown_light_ui;
    178a:	20 91 9a 05 	lds	r18, 0x059A	; 0x80059a <light_level>
    178e:	30 91 9b 05 	lds	r19, 0x059B	; 0x80059b <light_level+0x1>
    1792:	28 1b       	sub	r18, r24
    1794:	39 0b       	sbc	r19, r25
    1796:	08 c0       	rjmp	.+16     	; 0x17a8 <main+0x172>
            } else {
                diff = last_shown_light_ui - light_level;
    1798:	20 91 9a 05 	lds	r18, 0x059A	; 0x80059a <light_level>
    179c:	30 91 9b 05 	lds	r19, 0x059B	; 0x80059b <light_level+0x1>
    17a0:	ac 01       	movw	r20, r24
    17a2:	42 1b       	sub	r20, r18
    17a4:	53 0b       	sbc	r21, r19
    17a6:	9a 01       	movw	r18, r20
            }
            // Mettre à jour l'affichage simplifié si variation >= 5 ou première fois
            if (diff >= 5 || last_shown_light_ui == 0xFFFF) {
    17a8:	25 30       	cpi	r18, 0x05	; 5
    17aa:	31 05       	cpc	r19, r1
    17ac:	10 f4       	brcc	.+4      	; 0x17b2 <main+0x17c>
    17ae:	01 96       	adiw	r24, 0x01	; 1
    17b0:	51 f4       	brne	.+20     	; 0x17c6 <main+0x190>
                display_simple_info();  // Afficher toutes les infos (inclut la luminosité)
    17b2:	0e 94 44 06 	call	0xc88	; 0xc88 <_Z19display_simple_infov>
                last_shown_light_ui = light_level;
    17b6:	80 91 9a 05 	lds	r24, 0x059A	; 0x80059a <light_level>
    17ba:	90 91 9b 05 	lds	r25, 0x059B	; 0x80059b <light_level+0x1>
    17be:	90 93 05 01 	sts	0x0105, r25	; 0x800105 <_ZZ4mainE19last_shown_light_ui+0x1>
    17c2:	80 93 04 01 	sts	0x0104, r24	; 0x800104 <_ZZ4mainE19last_shown_light_ui>
            }
        }
        
        // Envoyer la luminosité sur l'UART toutes les 1 seconde (~20ms * 50)
        static uint16_t light_send_counter = 0;
        light_send_counter++;
    17c6:	80 91 59 05 	lds	r24, 0x0559	; 0x800559 <_ZZ4mainE18light_send_counter>
    17ca:	90 91 5a 05 	lds	r25, 0x055A	; 0x80055a <_ZZ4mainE18light_send_counter+0x1>
    17ce:	01 96       	adiw	r24, 0x01	; 1
    17d0:	90 93 5a 05 	sts	0x055A, r25	; 0x80055a <_ZZ4mainE18light_send_counter+0x1>
    17d4:	80 93 59 05 	sts	0x0559, r24	; 0x800559 <_ZZ4mainE18light_send_counter>
        if (light_send_counter >= 50) {
    17d8:	c2 97       	sbiw	r24, 0x32	; 50
    17da:	30 f0       	brcs	.+12     	; 0x17e8 <main+0x1b2>
            light_send_counter = 0;
    17dc:	10 92 5a 05 	sts	0x055A, r1	; 0x80055a <_ZZ4mainE18light_send_counter+0x1>
    17e0:	10 92 59 05 	sts	0x0559, r1	; 0x800559 <_ZZ4mainE18light_send_counter>
            uart_send_light_ascii();
    17e4:	0e 94 4d 07 	call	0xe9a	; 0xe9a <_Z21uart_send_light_asciiv>
        }
        
        // Envoyer un message de debug toutes les 5 secondes (réduit pour moins de spam)
        static uint16_t debug_counter = 0;
        debug_counter++;
    17e8:	80 91 57 05 	lds	r24, 0x0557	; 0x800557 <_ZZ4mainE13debug_counter>
    17ec:	90 91 58 05 	lds	r25, 0x0558	; 0x800558 <_ZZ4mainE13debug_counter+0x1>
    17f0:	01 96       	adiw	r24, 0x01	; 1
    17f2:	90 93 58 05 	sts	0x0558, r25	; 0x800558 <_ZZ4mainE13debug_counter+0x1>
    17f6:	80 93 57 05 	sts	0x0557, r24	; 0x800557 <_ZZ4mainE13debug_counter>
        if (debug_counter >= 250) {  // ~5 secondes (250 * 20ms)
    17fa:	8a 3f       	cpi	r24, 0xFA	; 250
    17fc:	91 05       	cpc	r25, r1
    17fe:	18 f1       	brcs	.+70     	; 0x1846 <main+0x210>
            debug_counter = 0;
    1800:	10 92 58 05 	sts	0x0558, r1	; 0x800558 <_ZZ4mainE13debug_counter+0x1>
    1804:	10 92 57 05 	sts	0x0557, r1	; 0x800557 <_ZZ4mainE13debug_counter>
            debug_print("[LIGHT] Level: ");
    1808:	85 eb       	ldi	r24, 0xB5	; 181
    180a:	93 e0       	ldi	r25, 0x03	; 3
    180c:	0e 94 4f 06 	call	0xc9e	; 0xc9e <_Z11debug_printPKc>
            debug_print_dec(light_level);
    1810:	80 91 9a 05 	lds	r24, 0x059A	; 0x80059a <light_level>
    1814:	90 91 9b 05 	lds	r25, 0x059B	; 0x80059b <light_level+0x1>
    1818:	0e 94 f3 06 	call	0xde6	; 0xde6 <_Z15debug_print_decj>
            debug_print(" (0x");
    181c:	85 ec       	ldi	r24, 0xC5	; 197
    181e:	93 e0       	ldi	r25, 0x03	; 3
    1820:	0e 94 4f 06 	call	0xc9e	; 0xc9e <_Z11debug_printPKc>
            debug_print_hex((uint8_t)(light_level >> 8));
    1824:	80 91 9a 05 	lds	r24, 0x059A	; 0x80059a <light_level>
    1828:	90 91 9b 05 	lds	r25, 0x059B	; 0x80059b <light_level+0x1>
    182c:	89 2f       	mov	r24, r25
    182e:	0e 94 be 06 	call	0xd7c	; 0xd7c <_Z15debug_print_hexh>
            debug_print_hex((uint8_t)(light_level & 0xFF));
    1832:	80 91 9a 05 	lds	r24, 0x059A	; 0x80059a <light_level>
    1836:	90 91 9b 05 	lds	r25, 0x059B	; 0x80059b <light_level+0x1>
    183a:	0e 94 be 06 	call	0xd7c	; 0xd7c <_Z15debug_print_hexh>
            debug_print(")\r\n");
    183e:	8a ec       	ldi	r24, 0xCA	; 202
    1840:	93 e0       	ldi	r25, 0x03	; 3
    1842:	0e 94 4f 06 	call	0xc9e	; 0xc9e <_Z11debug_printPKc>
    1846:	87 e8       	ldi	r24, 0x87	; 135
    1848:	93 e1       	ldi	r25, 0x13	; 19
    184a:	01 97       	sbiw	r24, 0x01	; 1
    184c:	f1 f7       	brne	.-4      	; 0x184a <main+0x214>
    184e:	00 c0       	rjmp	.+0      	; 0x1850 <main+0x21a>
    1850:	00 00       	nop
    1852:	6d cf       	rjmp	.-294    	; 0x172e <main+0xf8>

00001854 <__vector_18>:
    uart_command = 0;
    uart_cmd_pending = 0;
}

// Interruption UART (réception) - bufferise; la boucle principale traite quand uart_cmd_pending
ISR(USART_RX_vect) {
    1854:	1f 92       	push	r1
    1856:	0f 92       	push	r0
    1858:	0f b6       	in	r0, 0x3f	; 63
    185a:	0f 92       	push	r0
    185c:	11 24       	eor	r1, r1
    185e:	8f 93       	push	r24
    1860:	9f 93       	push	r25
    1862:	ef 93       	push	r30
    1864:	ff 93       	push	r31
    uint8_t received = UDR0;
    1866:	80 91 c6 00 	lds	r24, 0x00C6	; 0x8000c6 <__TEXT_REGION_LENGTH__+0x7f80c6>
    
    if (received == '\n' || received == '\r') {
    186a:	8a 30       	cpi	r24, 0x0A	; 10
    186c:	11 f0       	breq	.+4      	; 0x1872 <__vector_18+0x1e>
    186e:	8d 30       	cpi	r24, 0x0D	; 13
    1870:	41 f4       	brne	.+16     	; 0x1882 <__vector_18+0x2e>
        if (uart_buffer_index > 0) {
    1872:	80 91 9f 05 	lds	r24, 0x059F	; 0x80059f <uart_buffer_index>
    1876:	88 23       	and	r24, r24
    1878:	c9 f0       	breq	.+50     	; 0x18ac <__vector_18+0x58>
            uart_cmd_pending = 1;  // Conserver le buffer pour processUartCommand
    187a:	81 e0       	ldi	r24, 0x01	; 1
    187c:	80 93 9e 05 	sts	0x059E, r24	; 0x80059e <uart_cmd_pending>
    1880:	15 c0       	rjmp	.+42     	; 0x18ac <__vector_18+0x58>
        }
        // Ne PAS reset uart_buffer_index - la boucle principale le fera après traitement
    } else {
        if (uart_cmd_pending) return;  // Attendre que la boucle principale traite
    1882:	90 91 9e 05 	lds	r25, 0x059E	; 0x80059e <uart_cmd_pending>
    1886:	91 11       	cpse	r25, r1
    1888:	11 c0       	rjmp	.+34     	; 0x18ac <__vector_18+0x58>
        if (uart_buffer_index < UART_BUFFER_SIZE - 1) {
    188a:	90 91 9f 05 	lds	r25, 0x059F	; 0x80059f <uart_buffer_index>
    188e:	9f 3f       	cpi	r25, 0xFF	; 255
    1890:	59 f0       	breq	.+22     	; 0x18a8 <__vector_18+0x54>
            uart_buffer[uart_buffer_index++] = received;
    1892:	e0 91 9f 05 	lds	r30, 0x059F	; 0x80059f <uart_buffer_index>
    1896:	91 e0       	ldi	r25, 0x01	; 1
    1898:	9e 0f       	add	r25, r30
    189a:	90 93 9f 05 	sts	0x059F, r25	; 0x80059f <uart_buffer_index>
    189e:	f0 e0       	ldi	r31, 0x00	; 0
    18a0:	e0 56       	subi	r30, 0x60	; 96
    18a2:	fa 4f       	sbci	r31, 0xFA	; 250
    18a4:	80 83       	st	Z, r24
    18a6:	02 c0       	rjmp	.+4      	; 0x18ac <__vector_18+0x58>
        } else {
            uart_buffer_index = 0;
    18a8:	10 92 9f 05 	sts	0x059F, r1	; 0x80059f <uart_buffer_index>
        }
    }
    18ac:	ff 91       	pop	r31
    18ae:	ef 91       	pop	r30
    18b0:	9f 91       	pop	r25
    18b2:	8f 91       	pop	r24
    18b4:	0f 90       	pop	r0
    18b6:	0f be       	out	0x3f, r0	; 63
    18b8:	0f 90       	pop	r0
    18ba:	1f 90       	pop	r1
    18bc:	18 95       	reti

000018be <__udivmodhi4>:
    18be:	aa 1b       	sub	r26, r26
    18c0:	bb 1b       	sub	r27, r27
    18c2:	51 e1       	ldi	r21, 0x11	; 17
    18c4:	07 c0       	rjmp	.+14     	; 0x18d4 <__udivmodhi4_ep>

000018c6 <__udivmodhi4_loop>:
    18c6:	aa 1f       	adc	r26, r26
    18c8:	bb 1f       	adc	r27, r27
    18ca:	a6 17       	cp	r26, r22
    18cc:	b7 07       	cpc	r27, r23
    18ce:	10 f0       	brcs	.+4      	; 0x18d4 <__udivmodhi4_ep>
    18d0:	a6 1b       	sub	r26, r22
    18d2:	b7 0b       	sbc	r27, r23

000018d4 <__udivmodhi4_ep>:
    18d4:	88 1f       	adc	r24, r24
    18d6:	99 1f       	adc	r25, r25
    18d8:	5a 95       	dec	r21
    18da:	a9 f7       	brne	.-22     	; 0x18c6 <__udivmodhi4_loop>
    18dc:	80 95       	com	r24
    18de:	90 95       	com	r25
    18e0:	bc 01       	movw	r22, r24
    18e2:	cd 01       	movw	r24, r26
    18e4:	08 95       	ret

000018e6 <__tablejump2__>:
    18e6:	ee 0f       	add	r30, r30
    18e8:	ff 1f       	adc	r31, r31
    18ea:	05 90       	lpm	r0, Z+
    18ec:	f4 91       	lpm	r31, Z
    18ee:	e0 2d       	mov	r30, r0
    18f0:	09 94       	ijmp

000018f2 <__umulhisi3>:
    18f2:	a2 9f       	mul	r26, r18
    18f4:	b0 01       	movw	r22, r0
    18f6:	b3 9f       	mul	r27, r19
    18f8:	c0 01       	movw	r24, r0
    18fa:	a3 9f       	mul	r26, r19
    18fc:	70 0d       	add	r23, r0
    18fe:	81 1d       	adc	r24, r1
    1900:	11 24       	eor	r1, r1
    1902:	91 1d       	adc	r25, r1
    1904:	b2 9f       	mul	r27, r18
    1906:	70 0d       	add	r23, r0
    1908:	81 1d       	adc	r24, r1
    190a:	11 24       	eor	r1, r1
    190c:	91 1d       	adc	r25, r1
    190e:	08 95       	ret

00001910 <memcpy>:
    1910:	fb 01       	movw	r30, r22
    1912:	dc 01       	movw	r26, r24
    1914:	02 c0       	rjmp	.+4      	; 0x191a <memcpy+0xa>
    1916:	01 90       	ld	r0, Z+
    1918:	0d 92       	st	X+, r0
    191a:	41 50       	subi	r20, 0x01	; 1
    191c:	50 40       	sbci	r21, 0x00	; 0
    191e:	d8 f7       	brcc	.-10     	; 0x1916 <memcpy+0x6>
    1920:	08 95       	ret

00001922 <strcmp>:
    1922:	fb 01       	movw	r30, r22
    1924:	dc 01       	movw	r26, r24
    1926:	8d 91       	ld	r24, X+
    1928:	01 90       	ld	r0, Z+
    192a:	80 19       	sub	r24, r0
    192c:	01 10       	cpse	r0, r1
    192e:	d9 f3       	breq	.-10     	; 0x1926 <strcmp+0x4>
    1930:	99 0b       	sbc	r25, r25
    1932:	08 95       	ret

00001934 <strncpy>:
    1934:	fb 01       	movw	r30, r22
    1936:	dc 01       	movw	r26, r24
    1938:	41 50       	subi	r20, 0x01	; 1
    193a:	50 40       	sbci	r21, 0x00	; 0
    193c:	48 f0       	brcs	.+18     	; 0x1950 <strncpy+0x1c>
    193e:	01 90       	ld	r0, Z+
    1940:	0d 92       	st	X+, r0
    1942:	00 20       	and	r0, r0
    1944:	c9 f7       	brne	.-14     	; 0x1938 <strncpy+0x4>
    1946:	01 c0       	rjmp	.+2      	; 0x194a <strncpy+0x16>
    1948:	1d 92       	st	X+, r1
    194a:	41 50       	subi	r20, 0x01	; 1
    194c:	50 40       	sbci	r21, 0x00	; 0
    194e:	e0 f7       	brcc	.-8      	; 0x1948 <strncpy+0x14>
    1950:	08 95       	ret

00001952 <_exit>:
    1952:	f8 94       	cli

00001954 <__stop_program>:
    1954:	ff cf       	rjmp	.-2      	; 0x1954 <__stop_program>
