
atmega_light.elf:     file format elf32-avr

Sections:
Idx Name          Size      VMA       LMA       File off  Algn
  0 .data         00000000  00800100  00800100  000007b0  2**0
                  CONTENTS, ALLOC, LOAD, DATA
  1 .text         0000073c  00000000  00000000  00000074  2**1
                  CONTENTS, ALLOC, LOAD, READONLY, CODE
  2 .bss          0000000b  00800100  00800100  000007b0  2**0
                  ALLOC
  3 .comment      00000030  00000000  00000000  000007b0  2**0
                  CONTENTS, READONLY
  4 .note.gnu.avr.deviceinfo 00000040  00000000  00000000  000007e0  2**2
                  CONTENTS, READONLY
  5 .debug_aranges 000000a8  00000000  00000000  00000820  2**0
                  CONTENTS, READONLY, DEBUGGING
  6 .debug_info   000013df  00000000  00000000  000008c8  2**0
                  CONTENTS, READONLY, DEBUGGING
  7 .debug_abbrev 00000871  00000000  00000000  00001ca7  2**0
                  CONTENTS, READONLY, DEBUGGING
  8 .debug_line   0000084f  00000000  00000000  00002518  2**0
                  CONTENTS, READONLY, DEBUGGING
  9 .debug_frame  00000280  00000000  00000000  00002d68  2**2
                  CONTENTS, READONLY, DEBUGGING
 10 .debug_str    000007be  00000000  00000000  00002fe8  2**0
                  CONTENTS, READONLY, DEBUGGING
 11 .debug_loc    00000be5  00000000  00000000  000037a6  2**0
                  CONTENTS, READONLY, DEBUGGING
 12 .debug_ranges 00000098  00000000  00000000  0000438b  2**0
                  CONTENTS, READONLY, DEBUGGING

Disassembly of section .text:

00000000 <__vectors>:
   0:	0c 94 34 00 	jmp	0x68	; 0x68 <__ctors_end>
   4:	0c 94 46 00 	jmp	0x8c	; 0x8c <__bad_interrupt>
   8:	0c 94 46 00 	jmp	0x8c	; 0x8c <__bad_interrupt>
   c:	0c 94 46 00 	jmp	0x8c	; 0x8c <__bad_interrupt>
  10:	0c 94 46 00 	jmp	0x8c	; 0x8c <__bad_interrupt>
  14:	0c 94 46 00 	jmp	0x8c	; 0x8c <__bad_interrupt>
  18:	0c 94 46 00 	jmp	0x8c	; 0x8c <__bad_interrupt>
  1c:	0c 94 46 00 	jmp	0x8c	; 0x8c <__bad_interrupt>
  20:	0c 94 46 00 	jmp	0x8c	; 0x8c <__bad_interrupt>
  24:	0c 94 46 00 	jmp	0x8c	; 0x8c <__bad_interrupt>
  28:	0c 94 46 00 	jmp	0x8c	; 0x8c <__bad_interrupt>
  2c:	0c 94 46 00 	jmp	0x8c	; 0x8c <__bad_interrupt>
  30:	0c 94 46 00 	jmp	0x8c	; 0x8c <__bad_interrupt>
  34:	0c 94 46 00 	jmp	0x8c	; 0x8c <__bad_interrupt>
  38:	0c 94 46 00 	jmp	0x8c	; 0x8c <__bad_interrupt>
  3c:	0c 94 46 00 	jmp	0x8c	; 0x8c <__bad_interrupt>
  40:	0c 94 46 00 	jmp	0x8c	; 0x8c <__bad_interrupt>
  44:	0c 94 46 00 	jmp	0x8c	; 0x8c <__bad_interrupt>
  48:	0c 94 46 00 	jmp	0x8c	; 0x8c <__bad_interrupt>
  4c:	0c 94 46 00 	jmp	0x8c	; 0x8c <__bad_interrupt>
  50:	0c 94 46 00 	jmp	0x8c	; 0x8c <__bad_interrupt>
  54:	0c 94 46 00 	jmp	0x8c	; 0x8c <__bad_interrupt>
  58:	0c 94 46 00 	jmp	0x8c	; 0x8c <__bad_interrupt>
  5c:	0c 94 46 00 	jmp	0x8c	; 0x8c <__bad_interrupt>
  60:	0c 94 91 02 	jmp	0x522	; 0x522 <__vector_24>
  64:	0c 94 46 00 	jmp	0x8c	; 0x8c <__bad_interrupt>

00000068 <__ctors_end>:
  68:	11 24       	eor	r1, r1
  6a:	1f be       	out	0x3f, r1	; 63
  6c:	cf ef       	ldi	r28, 0xFF	; 255
  6e:	d8 e0       	ldi	r29, 0x08	; 8
  70:	de bf       	out	0x3e, r29	; 62
  72:	cd bf       	out	0x3d, r28	; 61

00000074 <__do_clear_bss>:
  74:	21 e0       	ldi	r18, 0x01	; 1
  76:	a0 e0       	ldi	r26, 0x00	; 0
  78:	b1 e0       	ldi	r27, 0x01	; 1
  7a:	01 c0       	rjmp	.+2      	; 0x7e <.do_clear_bss_start>

0000007c <.do_clear_bss_loop>:
  7c:	1d 92       	st	X+, r1

0000007e <.do_clear_bss_start>:
  7e:	ab 30       	cpi	r26, 0x0B	; 11
  80:	b2 07       	cpc	r27, r18
  82:	e1 f7       	brne	.-8      	; 0x7c <.do_clear_bss_loop>
  84:	0e 94 57 02 	call	0x4ae	; 0x4ae <main>
  88:	0c 94 9c 03 	jmp	0x738	; 0x738 <_exit>

0000008c <__bad_interrupt>:
  8c:	0c 94 00 00 	jmp	0	; 0x0 <__vectors>

00000090 <_Z8adc_initv>:
    
    // Partie remplie
    if (filled_width > 0) {
        st7789_fill_rect(x, y, filled_width, h, fg_color);
    }
}
  90:	80 e4       	ldi	r24, 0x40	; 64
  92:	80 93 7c 00 	sts	0x007C, r24	; 0x80007c <__TEXT_REGION_LENGTH__+0x7f807c>
  96:	87 e8       	ldi	r24, 0x87	; 135
  98:	80 93 7a 00 	sts	0x007A, r24	; 0x80007a <__TEXT_REGION_LENGTH__+0x7f807a>
  9c:	08 95       	ret

0000009e <_Z8adc_readv>:
  9e:	ea e7       	ldi	r30, 0x7A	; 122
  a0:	f0 e0       	ldi	r31, 0x00	; 0
  a2:	80 81       	ld	r24, Z
  a4:	80 64       	ori	r24, 0x40	; 64
  a6:	80 83       	st	Z, r24
  a8:	80 91 7a 00 	lds	r24, 0x007A	; 0x80007a <__TEXT_REGION_LENGTH__+0x7f807a>
  ac:	86 fd       	sbrc	r24, 6
  ae:	fc cf       	rjmp	.-8      	; 0xa8 <_Z8adc_readv+0xa>
  b0:	80 91 78 00 	lds	r24, 0x0078	; 0x800078 <__TEXT_REGION_LENGTH__+0x7f8078>
  b4:	90 91 79 00 	lds	r25, 0x0079	; 0x800079 <__TEXT_REGION_LENGTH__+0x7f8079>
  b8:	08 95       	ret

000000ba <_Z8pwm_initv>:
  ba:	81 e2       	ldi	r24, 0x21	; 33
  bc:	84 bd       	out	0x24, r24	; 36
  be:	81 e0       	ldi	r24, 0x01	; 1
  c0:	85 bd       	out	0x25, r24	; 37
  c2:	8a b1       	in	r24, 0x0a	; 10
  c4:	80 62       	ori	r24, 0x20	; 32
  c6:	8a b9       	out	0x0a, r24	; 10
  c8:	18 bc       	out	0x28, r1	; 40
  ca:	08 95       	ret

000000cc <_Z18set_led_brightnessh>:
  cc:	80 93 04 01 	sts	0x0104, r24	; 0x800104 <led_brightness>
  d0:	88 bd       	out	0x28, r24	; 40
  d2:	08 95       	ret

000000d4 <_Z8spi_initv>:
  d4:	80 e5       	ldi	r24, 0x50	; 80
  d6:	8c bd       	out	0x2c, r24	; 44
  d8:	81 e0       	ldi	r24, 0x01	; 1
  da:	8d bd       	out	0x2d, r24	; 45
  dc:	84 b1       	in	r24, 0x04	; 4
  de:	88 62       	ori	r24, 0x28	; 40
  e0:	84 b9       	out	0x04, r24	; 4
  e2:	84 b1       	in	r24, 0x04	; 4
  e4:	8f 7e       	andi	r24, 0xEF	; 239
  e6:	84 b9       	out	0x04, r24	; 4
  e8:	84 b1       	in	r24, 0x04	; 4
  ea:	84 60       	ori	r24, 0x04	; 4
  ec:	84 b9       	out	0x04, r24	; 4
  ee:	84 b1       	in	r24, 0x04	; 4
  f0:	82 60       	ori	r24, 0x02	; 2
  f2:	84 b9       	out	0x04, r24	; 4
  f4:	84 b1       	in	r24, 0x04	; 4
  f6:	81 60       	ori	r24, 0x01	; 1
  f8:	84 b9       	out	0x04, r24	; 4
  fa:	85 b1       	in	r24, 0x05	; 5
  fc:	84 60       	ori	r24, 0x04	; 4
  fe:	85 b9       	out	0x05, r24	; 5
 100:	85 b1       	in	r24, 0x05	; 5
 102:	81 60       	ori	r24, 0x01	; 1
 104:	85 b9       	out	0x05, r24	; 5
 106:	08 95       	ret

00000108 <_Z9spi_writeh>:
 108:	8e bd       	out	0x2e, r24	; 46
 10a:	0d b4       	in	r0, 0x2d	; 45
 10c:	07 fe       	sbrs	r0, 7
 10e:	fd cf       	rjmp	.-6      	; 0x10a <_Z9spi_writeh+0x2>
 110:	08 95       	ret

00000112 <_Z16st7789_write_cmdh>:
 112:	95 b1       	in	r25, 0x05	; 5
 114:	9b 7f       	andi	r25, 0xFB	; 251
 116:	95 b9       	out	0x05, r25	; 5
 118:	95 b1       	in	r25, 0x05	; 5
 11a:	9d 7f       	andi	r25, 0xFD	; 253
 11c:	95 b9       	out	0x05, r25	; 5
 11e:	0e 94 84 00 	call	0x108	; 0x108 <_Z9spi_writeh>
 122:	85 b1       	in	r24, 0x05	; 5
 124:	84 60       	ori	r24, 0x04	; 4
 126:	85 b9       	out	0x05, r24	; 5
 128:	08 95       	ret

0000012a <_Z17st7789_write_datah>:
 12a:	95 b1       	in	r25, 0x05	; 5
 12c:	9b 7f       	andi	r25, 0xFB	; 251
 12e:	95 b9       	out	0x05, r25	; 5
 130:	95 b1       	in	r25, 0x05	; 5
 132:	92 60       	ori	r25, 0x02	; 2
 134:	95 b9       	out	0x05, r25	; 5
 136:	0e 94 84 00 	call	0x108	; 0x108 <_Z9spi_writeh>
 13a:	85 b1       	in	r24, 0x05	; 5
 13c:	84 60       	ori	r24, 0x04	; 4
 13e:	85 b9       	out	0x05, r24	; 5
 140:	08 95       	ret

00000142 <_Z17st7789_set_windowjjjj>:
 142:	cf 92       	push	r12
 144:	df 92       	push	r13
 146:	ef 92       	push	r14
 148:	ff 92       	push	r15
 14a:	0f 93       	push	r16
 14c:	1f 93       	push	r17
 14e:	cf 93       	push	r28
 150:	df 93       	push	r29
 152:	d8 2e       	mov	r13, r24
 154:	c9 2e       	mov	r12, r25
 156:	16 2f       	mov	r17, r22
 158:	07 2f       	mov	r16, r23
 15a:	f4 2e       	mov	r15, r20
 15c:	e5 2e       	mov	r14, r21
 15e:	c2 2f       	mov	r28, r18
 160:	d3 2f       	mov	r29, r19
 162:	8a e2       	ldi	r24, 0x2A	; 42
 164:	0e 94 89 00 	call	0x112	; 0x112 <_Z16st7789_write_cmdh>
 168:	8c 2d       	mov	r24, r12
 16a:	0e 94 95 00 	call	0x12a	; 0x12a <_Z17st7789_write_datah>
 16e:	8d 2d       	mov	r24, r13
 170:	0e 94 95 00 	call	0x12a	; 0x12a <_Z17st7789_write_datah>
 174:	8e 2d       	mov	r24, r14
 176:	0e 94 95 00 	call	0x12a	; 0x12a <_Z17st7789_write_datah>
 17a:	8f 2d       	mov	r24, r15
 17c:	0e 94 95 00 	call	0x12a	; 0x12a <_Z17st7789_write_datah>
 180:	8b e2       	ldi	r24, 0x2B	; 43
 182:	0e 94 89 00 	call	0x112	; 0x112 <_Z16st7789_write_cmdh>
 186:	80 2f       	mov	r24, r16
 188:	0e 94 95 00 	call	0x12a	; 0x12a <_Z17st7789_write_datah>
 18c:	81 2f       	mov	r24, r17
 18e:	0e 94 95 00 	call	0x12a	; 0x12a <_Z17st7789_write_datah>
 192:	8d 2f       	mov	r24, r29
 194:	0e 94 95 00 	call	0x12a	; 0x12a <_Z17st7789_write_datah>
 198:	8c 2f       	mov	r24, r28
 19a:	0e 94 95 00 	call	0x12a	; 0x12a <_Z17st7789_write_datah>
 19e:	8c e2       	ldi	r24, 0x2C	; 44
 1a0:	0e 94 89 00 	call	0x112	; 0x112 <_Z16st7789_write_cmdh>
 1a4:	df 91       	pop	r29
 1a6:	cf 91       	pop	r28
 1a8:	1f 91       	pop	r17
 1aa:	0f 91       	pop	r16
 1ac:	ff 90       	pop	r15
 1ae:	ef 90       	pop	r14
 1b0:	df 90       	pop	r13
 1b2:	cf 90       	pop	r12
 1b4:	08 95       	ret

000001b6 <_Z18st7789_fill_screenj>:
 1b6:	ef 92       	push	r14
 1b8:	ff 92       	push	r15
 1ba:	0f 93       	push	r16
 1bc:	1f 93       	push	r17
 1be:	cf 93       	push	r28
 1c0:	df 93       	push	r29
 1c2:	18 2f       	mov	r17, r24
 1c4:	09 2f       	mov	r16, r25
 1c6:	2f e3       	ldi	r18, 0x3F	; 63
 1c8:	31 e0       	ldi	r19, 0x01	; 1
 1ca:	4f ee       	ldi	r20, 0xEF	; 239
 1cc:	50 e0       	ldi	r21, 0x00	; 0
 1ce:	60 e0       	ldi	r22, 0x00	; 0
 1d0:	70 e0       	ldi	r23, 0x00	; 0
 1d2:	80 e0       	ldi	r24, 0x00	; 0
 1d4:	90 e0       	ldi	r25, 0x00	; 0
 1d6:	0e 94 a1 00 	call	0x142	; 0x142 <_Z17st7789_set_windowjjjj>
 1da:	85 b1       	in	r24, 0x05	; 5
 1dc:	8b 7f       	andi	r24, 0xFB	; 251
 1de:	85 b9       	out	0x05, r24	; 5
 1e0:	85 b1       	in	r24, 0x05	; 5
 1e2:	82 60       	ori	r24, 0x02	; 2
 1e4:	85 b9       	out	0x05, r24	; 5
 1e6:	e1 2c       	mov	r14, r1
 1e8:	f1 2c       	mov	r15, r1
 1ea:	80 e4       	ldi	r24, 0x40	; 64
 1ec:	e8 16       	cp	r14, r24
 1ee:	81 e0       	ldi	r24, 0x01	; 1
 1f0:	f8 06       	cpc	r15, r24
 1f2:	88 f4       	brcc	.+34     	; 0x216 <_Z18st7789_fill_screenj+0x60>
 1f4:	c0 e0       	ldi	r28, 0x00	; 0
 1f6:	d0 e0       	ldi	r29, 0x00	; 0
 1f8:	c0 3f       	cpi	r28, 0xF0	; 240
 1fa:	d1 05       	cpc	r29, r1
 1fc:	40 f4       	brcc	.+16     	; 0x20e <_Z18st7789_fill_screenj+0x58>
 1fe:	80 2f       	mov	r24, r16
 200:	0e 94 84 00 	call	0x108	; 0x108 <_Z9spi_writeh>
 204:	81 2f       	mov	r24, r17
 206:	0e 94 84 00 	call	0x108	; 0x108 <_Z9spi_writeh>
 20a:	21 96       	adiw	r28, 0x01	; 1
 20c:	f5 cf       	rjmp	.-22     	; 0x1f8 <_Z18st7789_fill_screenj+0x42>
 20e:	8f ef       	ldi	r24, 0xFF	; 255
 210:	e8 1a       	sub	r14, r24
 212:	f8 0a       	sbc	r15, r24
 214:	ea cf       	rjmp	.-44     	; 0x1ea <_Z18st7789_fill_screenj+0x34>
 216:	85 b1       	in	r24, 0x05	; 5
 218:	84 60       	ori	r24, 0x04	; 4
 21a:	85 b9       	out	0x05, r24	; 5
 21c:	df 91       	pop	r29
 21e:	cf 91       	pop	r28
 220:	1f 91       	pop	r17
 222:	0f 91       	pop	r16
 224:	ff 90       	pop	r15
 226:	ef 90       	pop	r14
 228:	08 95       	ret

0000022a <_Z16st7789_fill_rectjjjjj>:
 22a:	cf 92       	push	r12
 22c:	df 92       	push	r13
 22e:	ef 92       	push	r14
 230:	ff 92       	push	r15
 232:	0f 93       	push	r16
 234:	1f 93       	push	r17
 236:	cf 93       	push	r28
 238:	df 93       	push	r29
 23a:	7a 01       	movw	r14, r20
 23c:	69 01       	movw	r12, r18
 23e:	9c 01       	movw	r18, r24
 240:	24 0f       	add	r18, r20
 242:	35 1f       	adc	r19, r21
 244:	21 3f       	cpi	r18, 0xF1	; 241
 246:	31 05       	cpc	r19, r1
 248:	28 f0       	brcs	.+10     	; 0x254 <_Z16st7789_fill_rectjjjjj+0x2a>
 24a:	20 ef       	ldi	r18, 0xF0	; 240
 24c:	30 e0       	ldi	r19, 0x00	; 0
 24e:	79 01       	movw	r14, r18
 250:	e8 1a       	sub	r14, r24
 252:	f9 0a       	sbc	r15, r25
 254:	9b 01       	movw	r18, r22
 256:	2c 0d       	add	r18, r12
 258:	3d 1d       	adc	r19, r13
 25a:	21 34       	cpi	r18, 0x41	; 65
 25c:	31 40       	sbci	r19, 0x01	; 1
 25e:	28 f0       	brcs	.+10     	; 0x26a <_Z16st7789_fill_rectjjjjj+0x40>
 260:	20 e4       	ldi	r18, 0x40	; 64
 262:	31 e0       	ldi	r19, 0x01	; 1
 264:	69 01       	movw	r12, r18
 266:	c6 1a       	sub	r12, r22
 268:	d7 0a       	sbc	r13, r23
 26a:	96 01       	movw	r18, r12
 26c:	26 0f       	add	r18, r22
 26e:	37 1f       	adc	r19, r23
 270:	21 50       	subi	r18, 0x01	; 1
 272:	31 09       	sbc	r19, r1
 274:	a7 01       	movw	r20, r14
 276:	48 0f       	add	r20, r24
 278:	59 1f       	adc	r21, r25
 27a:	41 50       	subi	r20, 0x01	; 1
 27c:	51 09       	sbc	r21, r1
 27e:	0e 94 a1 00 	call	0x142	; 0x142 <_Z17st7789_set_windowjjjj>
 282:	85 b1       	in	r24, 0x05	; 5
 284:	8b 7f       	andi	r24, 0xFB	; 251
 286:	85 b9       	out	0x05, r24	; 5
 288:	85 b1       	in	r24, 0x05	; 5
 28a:	82 60       	ori	r24, 0x02	; 2
 28c:	85 b9       	out	0x05, r24	; 5
 28e:	c0 e0       	ldi	r28, 0x00	; 0
 290:	d0 e0       	ldi	r29, 0x00	; 0
 292:	ec 9c       	mul	r14, r12
 294:	c0 01       	movw	r24, r0
 296:	ed 9c       	mul	r14, r13
 298:	90 0d       	add	r25, r0
 29a:	fc 9c       	mul	r15, r12
 29c:	90 0d       	add	r25, r0
 29e:	11 24       	eor	r1, r1
 2a0:	c8 17       	cp	r28, r24
 2a2:	d9 07       	cpc	r29, r25
 2a4:	40 f4       	brcc	.+16     	; 0x2b6 <_Z16st7789_fill_rectjjjjj+0x8c>
 2a6:	81 2f       	mov	r24, r17
 2a8:	0e 94 84 00 	call	0x108	; 0x108 <_Z9spi_writeh>
 2ac:	80 2f       	mov	r24, r16
 2ae:	0e 94 84 00 	call	0x108	; 0x108 <_Z9spi_writeh>
 2b2:	21 96       	adiw	r28, 0x01	; 1
 2b4:	ee cf       	rjmp	.-36     	; 0x292 <_Z16st7789_fill_rectjjjjj+0x68>
 2b6:	85 b1       	in	r24, 0x05	; 5
 2b8:	84 60       	ori	r24, 0x04	; 4
 2ba:	85 b9       	out	0x05, r24	; 5
 2bc:	df 91       	pop	r29
 2be:	cf 91       	pop	r28
 2c0:	1f 91       	pop	r17
 2c2:	0f 91       	pop	r16
 2c4:	ff 90       	pop	r15
 2c6:	ef 90       	pop	r14
 2c8:	df 90       	pop	r13
 2ca:	cf 90       	pop	r12
 2cc:	08 95       	ret

000002ce <_Z11st7789_initv>:
 2ce:	0f 93       	push	r16
 2d0:	1f 93       	push	r17
 2d2:	85 b1       	in	r24, 0x05	; 5
 2d4:	8e 7f       	andi	r24, 0xFE	; 254
 2d6:	85 b9       	out	0x05, r24	; 5
 2d8:	83 ec       	ldi	r24, 0xC3	; 195
 2da:	99 e0       	ldi	r25, 0x09	; 9
 2dc:	01 97       	sbiw	r24, 0x01	; 1
 2de:	f1 f7       	brne	.-4      	; 0x2dc <_Z11st7789_initv+0xe>
 2e0:	00 c0       	rjmp	.+0      	; 0x2e2 <_Z11st7789_initv+0x14>
 2e2:	00 00       	nop
 2e4:	85 b1       	in	r24, 0x05	; 5
 2e6:	81 60       	ori	r24, 0x01	; 1
 2e8:	85 b9       	out	0x05, r24	; 5
 2ea:	83 ec       	ldi	r24, 0xC3	; 195
 2ec:	99 e0       	ldi	r25, 0x09	; 9
 2ee:	01 97       	sbiw	r24, 0x01	; 1
 2f0:	f1 f7       	brne	.-4      	; 0x2ee <_Z11st7789_initv+0x20>
 2f2:	00 c0       	rjmp	.+0      	; 0x2f4 <_Z11st7789_initv+0x26>
 2f4:	00 00       	nop
 2f6:	81 e0       	ldi	r24, 0x01	; 1
 2f8:	0e 94 89 00 	call	0x112	; 0x112 <_Z16st7789_write_cmdh>
 2fc:	8f e2       	ldi	r24, 0x2F	; 47
 2fe:	95 e7       	ldi	r25, 0x75	; 117
 300:	01 97       	sbiw	r24, 0x01	; 1
 302:	f1 f7       	brne	.-4      	; 0x300 <_Z11st7789_initv+0x32>
 304:	00 c0       	rjmp	.+0      	; 0x306 <_Z11st7789_initv+0x38>
 306:	00 00       	nop
 308:	81 e1       	ldi	r24, 0x11	; 17
 30a:	0e 94 89 00 	call	0x112	; 0x112 <_Z16st7789_write_cmdh>
 30e:	8f e2       	ldi	r24, 0x2F	; 47
 310:	95 e7       	ldi	r25, 0x75	; 117
 312:	01 97       	sbiw	r24, 0x01	; 1
 314:	f1 f7       	brne	.-4      	; 0x312 <_Z11st7789_initv+0x44>
 316:	00 c0       	rjmp	.+0      	; 0x318 <_Z11st7789_initv+0x4a>
 318:	00 00       	nop
 31a:	8a e3       	ldi	r24, 0x3A	; 58
 31c:	0e 94 89 00 	call	0x112	; 0x112 <_Z16st7789_write_cmdh>
 320:	85 e5       	ldi	r24, 0x55	; 85
 322:	0e 94 95 00 	call	0x12a	; 0x12a <_Z17st7789_write_datah>
 326:	86 e3       	ldi	r24, 0x36	; 54
 328:	0e 94 89 00 	call	0x112	; 0x112 <_Z16st7789_write_cmdh>
 32c:	80 e0       	ldi	r24, 0x00	; 0
 32e:	0e 94 95 00 	call	0x12a	; 0x12a <_Z17st7789_write_datah>
 332:	89 e2       	ldi	r24, 0x29	; 41
 334:	0e 94 89 00 	call	0x112	; 0x112 <_Z16st7789_write_cmdh>
 338:	87 e8       	ldi	r24, 0x87	; 135
 33a:	93 e1       	ldi	r25, 0x13	; 19
 33c:	01 97       	sbiw	r24, 0x01	; 1
 33e:	f1 f7       	brne	.-4      	; 0x33c <_Z11st7789_initv+0x6e>
 340:	00 c0       	rjmp	.+0      	; 0x342 <_Z11st7789_initv+0x74>
 342:	00 00       	nop
 344:	80 e0       	ldi	r24, 0x00	; 0
 346:	90 e0       	ldi	r25, 0x00	; 0
 348:	0e 94 db 00 	call	0x1b6	; 0x1b6 <_Z18st7789_fill_screenj>
 34c:	83 ed       	ldi	r24, 0xD3	; 211
 34e:	90 e3       	ldi	r25, 0x30	; 48
 350:	01 97       	sbiw	r24, 0x01	; 1
 352:	f1 f7       	brne	.-4      	; 0x350 <_Z11st7789_initv+0x82>
 354:	00 c0       	rjmp	.+0      	; 0x356 <_Z11st7789_initv+0x88>
 356:	00 00       	nop
 358:	0f ef       	ldi	r16, 0xFF	; 255
 35a:	1f ef       	ldi	r17, 0xFF	; 255
 35c:	24 e6       	ldi	r18, 0x64	; 100
 35e:	30 e0       	ldi	r19, 0x00	; 0
 360:	4c e8       	ldi	r20, 0x8C	; 140
 362:	50 e0       	ldi	r21, 0x00	; 0
 364:	62 e3       	ldi	r22, 0x32	; 50
 366:	70 e0       	ldi	r23, 0x00	; 0
 368:	82 e3       	ldi	r24, 0x32	; 50
 36a:	90 e0       	ldi	r25, 0x00	; 0
 36c:	0e 94 15 01 	call	0x22a	; 0x22a <_Z16st7789_fill_rectjjjjj>
 370:	87 ea       	ldi	r24, 0xA7	; 167
 372:	91 e6       	ldi	r25, 0x61	; 97
 374:	01 97       	sbiw	r24, 0x01	; 1
 376:	f1 f7       	brne	.-4      	; 0x374 <_Z11st7789_initv+0xa6>
 378:	00 c0       	rjmp	.+0      	; 0x37a <_Z11st7789_initv+0xac>
 37a:	00 00       	nop
 37c:	80 e0       	ldi	r24, 0x00	; 0
 37e:	90 e0       	ldi	r25, 0x00	; 0
 380:	0e 94 db 00 	call	0x1b6	; 0x1b6 <_Z18st7789_fill_screenj>
 384:	1f 91       	pop	r17
 386:	0f 91       	pop	r16
 388:	08 95       	ret

0000038a <_Z21st7789_update_displayv>:

// Mettre à jour l'affichage avec les informations
void st7789_update_display(void) {
 38a:	0f 93       	push	r16
 38c:	1f 93       	push	r17
    // Effacer l'écran en noir
    st7789_fill_screen(0x0000);  // Noir
 38e:	80 e0       	ldi	r24, 0x00	; 0
 390:	90 e0       	ldi	r25, 0x00	; 0
 392:	0e 94 db 00 	call	0x1b6	; 0x1b6 <_Z18st7789_fill_screenj>
    // Barre de luminosité ambiante (en haut)
    uint16_t light_bar_y = 20;
    uint16_t light_bar_height = 30;
    
    // Fond de la barre de luminosité
    st7789_fill_rect(10, light_bar_y, 220, light_bar_height, color_gray);
 396:	00 e1       	ldi	r16, 0x10	; 16
 398:	14 e8       	ldi	r17, 0x84	; 132
 39a:	2e e1       	ldi	r18, 0x1E	; 30
 39c:	30 e0       	ldi	r19, 0x00	; 0
 39e:	4c ed       	ldi	r20, 0xDC	; 220
 3a0:	50 e0       	ldi	r21, 0x00	; 0
 3a2:	64 e1       	ldi	r22, 0x14	; 20
 3a4:	70 e0       	ldi	r23, 0x00	; 0
 3a6:	8a e0       	ldi	r24, 0x0A	; 10
 3a8:	90 e0       	ldi	r25, 0x00	; 0
 3aa:	0e 94 15 01 	call	0x22a	; 0x22a <_Z16st7789_fill_rectjjjjj>
    
    // Barre de luminosité (vert si élevé, jaune si moyen, rouge si faible)
    uint16_t light_color = color_green;
    if (light_level < 300) light_color = color_red;
 3ae:	80 91 02 01 	lds	r24, 0x0102	; 0x800102 <light_level>
 3b2:	90 91 03 01 	lds	r25, 0x0103	; 0x800103 <light_level+0x1>
 3b6:	8c 32       	cpi	r24, 0x2C	; 44
 3b8:	91 40       	sbci	r25, 0x01	; 1
 3ba:	50 f0       	brcs	.+20     	; 0x3d0 <_Z21st7789_update_displayv+0x46>
    else if (light_level < 700) light_color = color_yellow;
 3bc:	80 91 02 01 	lds	r24, 0x0102	; 0x800102 <light_level>
 3c0:	90 91 03 01 	lds	r25, 0x0103	; 0x800103 <light_level+0x1>
 3c4:	8c 3b       	cpi	r24, 0xBC	; 188
 3c6:	92 40       	sbci	r25, 0x02	; 2
 3c8:	30 f0       	brcs	.+12     	; 0x3d6 <_Z21st7789_update_displayv+0x4c>
    
    // Fond de la barre de luminosité
    st7789_fill_rect(10, light_bar_y, 220, light_bar_height, color_gray);
    
    // Barre de luminosité (vert si élevé, jaune si moyen, rouge si faible)
    uint16_t light_color = color_green;
 3ca:	00 ee       	ldi	r16, 0xE0	; 224
 3cc:	17 e0       	ldi	r17, 0x07	; 7
 3ce:	05 c0       	rjmp	.+10     	; 0x3da <_Z21st7789_update_displayv+0x50>
    if (light_level < 300) light_color = color_red;
 3d0:	00 e0       	ldi	r16, 0x00	; 0
 3d2:	18 ef       	ldi	r17, 0xF8	; 248
 3d4:	02 c0       	rjmp	.+4      	; 0x3da <_Z21st7789_update_displayv+0x50>
    else if (light_level < 700) light_color = color_yellow;
 3d6:	00 ee       	ldi	r16, 0xE0	; 224
 3d8:	1f ef       	ldi	r17, 0xFF	; 255
    
    uint16_t light_bar_width = (light_level * 220) / 1023;
 3da:	20 91 02 01 	lds	r18, 0x0102	; 0x800102 <light_level>
 3de:	30 91 03 01 	lds	r19, 0x0103	; 0x800103 <light_level+0x1>
 3e2:	4c ed       	ldi	r20, 0xDC	; 220
 3e4:	42 9f       	mul	r20, r18
 3e6:	c0 01       	movw	r24, r0
 3e8:	43 9f       	mul	r20, r19
 3ea:	90 0d       	add	r25, r0
 3ec:	11 24       	eor	r1, r1
 3ee:	6f ef       	ldi	r22, 0xFF	; 255
 3f0:	73 e0       	ldi	r23, 0x03	; 3
 3f2:	0e 94 74 03 	call	0x6e8	; 0x6e8 <__udivmodhi4>
    if (light_bar_width > 220) light_bar_width = 220;
    if (light_bar_width > 0) {
 3f6:	61 15       	cp	r22, r1
 3f8:	71 05       	cpc	r23, r1
 3fa:	49 f0       	breq	.+18     	; 0x40e <__EEPROM_REGION_LENGTH__+0xe>
        st7789_fill_rect(10, light_bar_y, light_bar_width, light_bar_height, light_color);
 3fc:	2e e1       	ldi	r18, 0x1E	; 30
 3fe:	30 e0       	ldi	r19, 0x00	; 0
 400:	ab 01       	movw	r20, r22
 402:	64 e1       	ldi	r22, 0x14	; 20
 404:	70 e0       	ldi	r23, 0x00	; 0
 406:	8a e0       	ldi	r24, 0x0A	; 10
 408:	90 e0       	ldi	r25, 0x00	; 0
 40a:	0e 94 15 01 	call	0x22a	; 0x22a <_Z16st7789_fill_rectjjjjj>
    // Barre de luminosité LED (au milieu)
    uint16_t led_bar_y = 80;
    uint16_t led_bar_height = 30;
    
    // Fond de la barre LED
    st7789_fill_rect(10, led_bar_y, 220, led_bar_height, color_gray);
 40e:	00 e1       	ldi	r16, 0x10	; 16
 410:	14 e8       	ldi	r17, 0x84	; 132
 412:	2e e1       	ldi	r18, 0x1E	; 30
 414:	30 e0       	ldi	r19, 0x00	; 0
 416:	4c ed       	ldi	r20, 0xDC	; 220
 418:	50 e0       	ldi	r21, 0x00	; 0
 41a:	60 e5       	ldi	r22, 0x50	; 80
 41c:	70 e0       	ldi	r23, 0x00	; 0
 41e:	8a e0       	ldi	r24, 0x0A	; 10
 420:	90 e0       	ldi	r25, 0x00	; 0
 422:	0e 94 15 01 	call	0x22a	; 0x22a <_Z16st7789_fill_rectjjjjj>
    
    // Barre LED (bleu)
    uint16_t led_bar_width = (led_brightness * 220) / 255;
 426:	80 91 04 01 	lds	r24, 0x0104	; 0x800104 <led_brightness>
 42a:	2c ed       	ldi	r18, 0xDC	; 220
 42c:	82 9f       	mul	r24, r18
 42e:	c0 01       	movw	r24, r0
 430:	11 24       	eor	r1, r1
 432:	6f ef       	ldi	r22, 0xFF	; 255
 434:	70 e0       	ldi	r23, 0x00	; 0
 436:	0e 94 88 03 	call	0x710	; 0x710 <__divmodhi4>
    if (led_bar_width > 220) led_bar_width = 220;
 43a:	6d 3d       	cpi	r22, 0xDD	; 221
 43c:	71 05       	cpc	r23, r1
 43e:	10 f0       	brcs	.+4      	; 0x444 <__EEPROM_REGION_LENGTH__+0x44>
 440:	6c ed       	ldi	r22, 0xDC	; 220
 442:	70 e0       	ldi	r23, 0x00	; 0
    if (led_bar_width > 0) {
 444:	61 15       	cp	r22, r1
 446:	71 05       	cpc	r23, r1
 448:	59 f0       	breq	.+22     	; 0x460 <__EEPROM_REGION_LENGTH__+0x60>
        st7789_fill_rect(10, led_bar_y, led_bar_width, led_bar_height, color_blue);
 44a:	0f e1       	ldi	r16, 0x1F	; 31
 44c:	10 e0       	ldi	r17, 0x00	; 0
 44e:	2e e1       	ldi	r18, 0x1E	; 30
 450:	30 e0       	ldi	r19, 0x00	; 0
 452:	ab 01       	movw	r20, r22
 454:	60 e5       	ldi	r22, 0x50	; 80
 456:	70 e0       	ldi	r23, 0x00	; 0
 458:	8a e0       	ldi	r24, 0x0A	; 10
 45a:	90 e0       	ldi	r25, 0x00	; 0
 45c:	0e 94 15 01 	call	0x22a	; 0x22a <_Z16st7789_fill_rectjjjjj>
    
    // Indicateur LED ON/OFF (en bas)
    uint16_t indicator_y = 140;
    uint16_t indicator_size = 40;
    
    if (led_brightness > 0) {
 460:	80 91 04 01 	lds	r24, 0x0104	; 0x800104 <led_brightness>
 464:	88 23       	and	r24, r24
 466:	69 f0       	breq	.+26     	; 0x482 <__EEPROM_REGION_LENGTH__+0x82>
        // LED ON - cercle vert (dessiné comme carré)
        st7789_fill_rect(100, indicator_y, indicator_size, indicator_size, color_green);
 468:	00 ee       	ldi	r16, 0xE0	; 224
 46a:	17 e0       	ldi	r17, 0x07	; 7
 46c:	28 e2       	ldi	r18, 0x28	; 40
 46e:	30 e0       	ldi	r19, 0x00	; 0
 470:	48 e2       	ldi	r20, 0x28	; 40
 472:	50 e0       	ldi	r21, 0x00	; 0
 474:	6c e8       	ldi	r22, 0x8C	; 140
 476:	70 e0       	ldi	r23, 0x00	; 0
 478:	84 e6       	ldi	r24, 0x64	; 100
 47a:	90 e0       	ldi	r25, 0x00	; 0
 47c:	0e 94 15 01 	call	0x22a	; 0x22a <_Z16st7789_fill_rectjjjjj>
 480:	0c c0       	rjmp	.+24     	; 0x49a <__EEPROM_REGION_LENGTH__+0x9a>
    } else {
        // LED OFF - cercle gris
        st7789_fill_rect(100, indicator_y, indicator_size, indicator_size, color_gray);
 482:	00 e1       	ldi	r16, 0x10	; 16
 484:	14 e8       	ldi	r17, 0x84	; 132
 486:	28 e2       	ldi	r18, 0x28	; 40
 488:	30 e0       	ldi	r19, 0x00	; 0
 48a:	48 e2       	ldi	r20, 0x28	; 40
 48c:	50 e0       	ldi	r21, 0x00	; 0
 48e:	6c e8       	ldi	r22, 0x8C	; 140
 490:	70 e0       	ldi	r23, 0x00	; 0
 492:	84 e6       	ldi	r24, 0x64	; 100
 494:	90 e0       	ldi	r25, 0x00	; 0
 496:	0e 94 15 01 	call	0x22a	; 0x22a <_Z16st7789_fill_rectjjjjj>
    }
}
 49a:	1f 91       	pop	r17
 49c:	0f 91       	pop	r16
 49e:	08 95       	ret

000004a0 <_Z8i2c_initv>:

// Initialiser I2C en mode esclave
void i2c_init(void) {
    // Adresse I2C avec bit R/W
    TWAR = (I2C_ADDRESS << 1) | 1;  // Général call activé
 4a0:	81 e1       	ldi	r24, 0x11	; 17
 4a2:	80 93 ba 00 	sts	0x00BA, r24	; 0x8000ba <__TEXT_REGION_LENGTH__+0x7f80ba>
    
    // Activer I2C et interruptions
    TWCR = (1 << TWIE) | (1 << TWEA) | (1 << TWEN) | (1 << TWINT);
 4a6:	85 ec       	ldi	r24, 0xC5	; 197
 4a8:	80 93 bc 00 	sts	0x00BC, r24	; 0x8000bc <__TEXT_REGION_LENGTH__+0x7f80bc>
 4ac:	08 95       	ret

000004ae <main>:
    debug_init();
    debug_print("\r\n=== ATmega328P Light Controller ===\r\n");
    debug_print("I2C Address: 0x08\r\n");
    
    // Initialiser les périphériques
    adc_init();
 4ae:	0e 94 48 00 	call	0x90	; 0x90 <_Z8adc_initv>
    debug_print("ADC initialized\r\n");
    
    pwm_init();
 4b2:	0e 94 5d 00 	call	0xba	; 0xba <_Z8pwm_initv>
    debug_print("PWM initialized\r\n");
    
    spi_init();
 4b6:	0e 94 6a 00 	call	0xd4	; 0xd4 <_Z8spi_initv>
    debug_print("SPI initialized\r\n");
    
    st7789_init();
 4ba:	0e 94 67 01 	call	0x2ce	; 0x2ce <_Z11st7789_initv>
	#else
		//round up by default
		__ticks_dc = (uint32_t)(ceil(fabs(__tmp)));
	#endif

	__builtin_avr_delay_cycles(__ticks_dc);
 4be:	87 ea       	ldi	r24, 0xA7	; 167
 4c0:	91 e6       	ldi	r25, 0x61	; 97
 4c2:	01 97       	sbiw	r24, 0x01	; 1
 4c4:	f1 f7       	brne	.-4      	; 0x4c2 <main+0x14>
 4c6:	00 c0       	rjmp	.+0      	; 0x4c8 <main+0x1a>
 4c8:	00 00       	nop
    debug_print("ST7789 initialized\r\n");
    
    // L'écran devrait déjà être noir après l'initialisation
    // Afficher les informations initiales
    _delay_ms(100);
    st7789_update_display();  // Afficher les informations initiales
 4ca:	0e 94 c5 01 	call	0x38a	; 0x38a <_Z21st7789_update_displayv>
    
    i2c_init();
 4ce:	0e 94 50 02 	call	0x4a0	; 0x4a0 <_Z8i2c_initv>
    debug_print("I2C initialized\r\n");
    
    // Activer interruptions globales
    sei();
 4d2:	78 94       	sei
    debug_print("Ready!\r\n");
    
    // Boucle principale
    while (1) {
        // Lire la luminosité toutes les 100ms
        uint16_t new_light = adc_read();
 4d4:	0e 94 4f 00 	call	0x9e	; 0x9e <_Z8adc_readv>
        if (new_light != light_level) {
 4d8:	20 91 02 01 	lds	r18, 0x0102	; 0x800102 <light_level>
 4dc:	30 91 03 01 	lds	r19, 0x0103	; 0x800103 <light_level+0x1>
 4e0:	82 17       	cp	r24, r18
 4e2:	93 07       	cpc	r25, r19
 4e4:	31 f0       	breq	.+12     	; 0x4f2 <main+0x44>
            light_level = new_light;
 4e6:	90 93 03 01 	sts	0x0103, r25	; 0x800103 <light_level+0x1>
 4ea:	80 93 02 01 	sts	0x0102, r24	; 0x800102 <light_level>
            debug_print_hex((uint8_t)(light_level >> 8));
            debug_print_hex((uint8_t)(light_level & 0xFF));
            debug_print(")\r\n");
            
            // Mettre à jour l'affichage quand la luminosité change
            st7789_update_display();
 4ee:	0e 94 c5 01 	call	0x38a	; 0x38a <_Z21st7789_update_displayv>
        }
        
        // Mettre à jour l'affichage périodiquement (toutes les secondes)
        // Note: millis() n'existe pas sur AVR, utiliser un compteur
        static uint16_t update_counter = 0;
        update_counter++;
 4f2:	80 91 00 01 	lds	r24, 0x0100	; 0x800100 <__DATA_REGION_ORIGIN__>
 4f6:	90 91 01 01 	lds	r25, 0x0101	; 0x800101 <__DATA_REGION_ORIGIN__+0x1>
 4fa:	01 96       	adiw	r24, 0x01	; 1
 4fc:	90 93 01 01 	sts	0x0101, r25	; 0x800101 <__DATA_REGION_ORIGIN__+0x1>
 500:	80 93 00 01 	sts	0x0100, r24	; 0x800100 <__DATA_REGION_ORIGIN__>
        if (update_counter >= 10) {  // ~1 seconde (100ms * 10)
 504:	0a 97       	sbiw	r24, 0x0a	; 10
 506:	30 f0       	brcs	.+12     	; 0x514 <main+0x66>
            update_counter = 0;
 508:	10 92 01 01 	sts	0x0101, r1	; 0x800101 <__DATA_REGION_ORIGIN__+0x1>
 50c:	10 92 00 01 	sts	0x0100, r1	; 0x800100 <__DATA_REGION_ORIGIN__>
            st7789_update_display();
 510:	0e 94 c5 01 	call	0x38a	; 0x38a <_Z21st7789_update_displayv>
 514:	87 ea       	ldi	r24, 0xA7	; 167
 516:	91 e6       	ldi	r25, 0x61	; 97
 518:	01 97       	sbiw	r24, 0x01	; 1
 51a:	f1 f7       	brne	.-4      	; 0x518 <main+0x6a>
 51c:	00 c0       	rjmp	.+0      	; 0x51e <main+0x70>
 51e:	00 00       	nop
 520:	d9 cf       	rjmp	.-78     	; 0x4d4 <main+0x26>

00000522 <__vector_24>:
    
    return 0;
}

// Interruption I2C (TWI)
ISR(TWI_vect) {
 522:	1f 92       	push	r1
 524:	0f 92       	push	r0
 526:	0f b6       	in	r0, 0x3f	; 63
 528:	0f 92       	push	r0
 52a:	11 24       	eor	r1, r1
 52c:	2f 93       	push	r18
 52e:	3f 93       	push	r19
 530:	4f 93       	push	r20
 532:	5f 93       	push	r21
 534:	6f 93       	push	r22
 536:	7f 93       	push	r23
 538:	8f 93       	push	r24
 53a:	9f 93       	push	r25
 53c:	af 93       	push	r26
 53e:	bf 93       	push	r27
 540:	ef 93       	push	r30
 542:	ff 93       	push	r31
    uint8_t status = TWSR & 0xF8;
 544:	80 91 b9 00 	lds	r24, 0x00B9	; 0x8000b9 <__TEXT_REGION_LENGTH__+0x7f80b9>
 548:	88 7f       	andi	r24, 0xF8	; 248
    
    switch (status) {
 54a:	80 3a       	cpi	r24, 0xA0	; 160
 54c:	09 f4       	brne	.+2      	; 0x550 <__vector_24+0x2e>
 54e:	b0 c0       	rjmp	.+352    	; 0x6b0 <__vector_24+0x18e>
 550:	60 f4       	brcc	.+24     	; 0x56a <__vector_24+0x48>
 552:	88 36       	cpi	r24, 0x68	; 104
 554:	e1 f0       	breq	.+56     	; 0x58e <__vector_24+0x6c>
 556:	18 f4       	brcc	.+6      	; 0x55e <__vector_24+0x3c>
 558:	80 36       	cpi	r24, 0x60	; 96
 55a:	c9 f0       	breq	.+50     	; 0x58e <__vector_24+0x6c>
 55c:	af c0       	rjmp	.+350    	; 0x6bc <__vector_24+0x19a>
 55e:	80 38       	cpi	r24, 0x80	; 128
 560:	01 f1       	breq	.+64     	; 0x5a2 <__vector_24+0x80>
 562:	88 38       	cpi	r24, 0x88	; 136
 564:	09 f4       	brne	.+2      	; 0x568 <__vector_24+0x46>
 566:	65 c0       	rjmp	.+202    	; 0x632 <__vector_24+0x110>
 568:	a9 c0       	rjmp	.+338    	; 0x6bc <__vector_24+0x19a>
 56a:	88 3b       	cpi	r24, 0xB8	; 184
 56c:	09 f4       	brne	.+2      	; 0x570 <__vector_24+0x4e>
 56e:	87 c0       	rjmp	.+270    	; 0x67e <__vector_24+0x15c>
 570:	38 f4       	brcc	.+14     	; 0x580 <__vector_24+0x5e>
 572:	88 3a       	cpi	r24, 0xA8	; 168
 574:	09 f4       	brne	.+2      	; 0x578 <__vector_24+0x56>
 576:	63 c0       	rjmp	.+198    	; 0x63e <__vector_24+0x11c>
 578:	80 3b       	cpi	r24, 0xB0	; 176
 57a:	09 f4       	brne	.+2      	; 0x57e <__vector_24+0x5c>
 57c:	60 c0       	rjmp	.+192    	; 0x63e <__vector_24+0x11c>
 57e:	9e c0       	rjmp	.+316    	; 0x6bc <__vector_24+0x19a>
 580:	80 3c       	cpi	r24, 0xC0	; 192
 582:	09 f4       	brne	.+2      	; 0x586 <__vector_24+0x64>
 584:	8f c0       	rjmp	.+286    	; 0x6a4 <__vector_24+0x182>
 586:	88 3c       	cpi	r24, 0xC8	; 200
 588:	09 f4       	brne	.+2      	; 0x58c <__vector_24+0x6a>
 58a:	8c c0       	rjmp	.+280    	; 0x6a4 <__vector_24+0x182>
 58c:	97 c0       	rjmp	.+302    	; 0x6bc <__vector_24+0x19a>
        // SLA+W reçu (ESP32 veut écrire)
        case 0x60:  // SLA+W reçu, ACK retourné
        case 0x68:  // SLA+W reçu après arbitration, ACK retourné
            debug_print("[I2C] SLA+W received\r\n");
            i2c_buffer_index = 0;
 58e:	10 92 06 01 	sts	0x0106, r1	; 0x800106 <i2c_buffer_index>
            i2c_command = 0;
 592:	10 92 05 01 	sts	0x0105, r1	; 0x800105 <i2c_command>
            TWCR |= (1 << TWEA) | (1 << TWINT);
 596:	ec eb       	ldi	r30, 0xBC	; 188
 598:	f0 e0       	ldi	r31, 0x00	; 0
 59a:	80 81       	ld	r24, Z
 59c:	80 6c       	ori	r24, 0xC0	; 192
 59e:	80 83       	st	Z, r24
            break;
 5a0:	92 c0       	rjmp	.+292    	; 0x6c6 <__vector_24+0x1a4>
            
        // Données reçues
        case 0x80:  // Données reçues, ACK retourné
            if (i2c_buffer_index == 0) {
 5a2:	80 91 06 01 	lds	r24, 0x0106	; 0x800106 <i2c_buffer_index>
 5a6:	81 11       	cpse	r24, r1
 5a8:	08 c0       	rjmp	.+16     	; 0x5ba <__vector_24+0x98>
                // Premier byte = commande
                i2c_command = TWDR;
 5aa:	80 91 bb 00 	lds	r24, 0x00BB	; 0x8000bb <__TEXT_REGION_LENGTH__+0x7f80bb>
 5ae:	80 93 05 01 	sts	0x0105, r24	; 0x800105 <i2c_command>
                i2c_buffer_index = 1;
 5b2:	81 e0       	ldi	r24, 0x01	; 1
 5b4:	80 93 06 01 	sts	0x0106, r24	; 0x800106 <i2c_buffer_index>
 5b8:	10 c0       	rjmp	.+32     	; 0x5da <__vector_24+0xb8>
                debug_print("[I2C] Command received: 0x");
                debug_print_hex(i2c_command);
                debug_print("\r\n");
            } else {
                // Bytes suivants = données
                if (i2c_buffer_index < sizeof(i2c_buffer)) {
 5ba:	80 91 06 01 	lds	r24, 0x0106	; 0x800106 <i2c_buffer_index>
 5be:	84 30       	cpi	r24, 0x04	; 4
 5c0:	60 f4       	brcc	.+24     	; 0x5da <__vector_24+0xb8>
                    i2c_buffer[i2c_buffer_index++] = TWDR;
 5c2:	e0 91 06 01 	lds	r30, 0x0106	; 0x800106 <i2c_buffer_index>
 5c6:	81 e0       	ldi	r24, 0x01	; 1
 5c8:	8e 0f       	add	r24, r30
 5ca:	80 93 06 01 	sts	0x0106, r24	; 0x800106 <i2c_buffer_index>
 5ce:	f0 e0       	ldi	r31, 0x00	; 0
 5d0:	80 91 bb 00 	lds	r24, 0x00BB	; 0x8000bb <__TEXT_REGION_LENGTH__+0x7f80bb>
 5d4:	e9 5f       	subi	r30, 0xF9	; 249
 5d6:	fe 4f       	sbci	r31, 0xFE	; 254
 5d8:	80 83       	st	Z, r24
                    debug_print("\r\n");
                }
            }
            
            // Traiter la commande si complète
            if (i2c_command == CMD_SET_LED && i2c_buffer_index >= 2) {
 5da:	80 91 05 01 	lds	r24, 0x0105	; 0x800105 <i2c_command>
 5de:	82 30       	cpi	r24, 0x02	; 2
 5e0:	31 f4       	brne	.+12     	; 0x5ee <__vector_24+0xcc>
 5e2:	80 91 06 01 	lds	r24, 0x0106	; 0x800106 <i2c_buffer_index>
 5e6:	82 30       	cpi	r24, 0x02	; 2
 5e8:	20 f4       	brcc	.+8      	; 0x5f2 <__vector_24+0xd0>
 5ea:	80 e0       	ldi	r24, 0x00	; 0
 5ec:	03 c0       	rjmp	.+6      	; 0x5f4 <__vector_24+0xd2>
 5ee:	80 e0       	ldi	r24, 0x00	; 0
 5f0:	01 c0       	rjmp	.+2      	; 0x5f4 <__vector_24+0xd2>
 5f2:	81 e0       	ldi	r24, 0x01	; 1
 5f4:	88 23       	and	r24, r24
 5f6:	49 f0       	breq	.+18     	; 0x60a <__vector_24+0xe8>
                uint8_t brightness = i2c_buffer[1];
 5f8:	80 91 08 01 	lds	r24, 0x0108	; 0x800108 <i2c_buffer+0x1>
                debug_print("[I2C] Setting LED brightness: ");
                debug_print_dec(brightness);
                debug_print("\r\n");
                set_led_brightness(brightness);
 5fc:	0e 94 66 00 	call	0xcc	; 0xcc <_Z18set_led_brightnessh>
                st7789_update_display();  // Mettre à jour l'affichage
 600:	0e 94 c5 01 	call	0x38a	; 0x38a <_Z21st7789_update_displayv>
                i2c_buffer_index = 0;
 604:	10 92 06 01 	sts	0x0106, r1	; 0x800106 <i2c_buffer_index>
 608:	0e c0       	rjmp	.+28     	; 0x626 <__vector_24+0x104>
            } else if (i2c_command == CMD_UPDATE_DISPLAY && i2c_buffer_index >= 1) {
 60a:	90 91 05 01 	lds	r25, 0x0105	; 0x800105 <i2c_command>
 60e:	94 30       	cpi	r25, 0x04	; 4
 610:	21 f4       	brne	.+8      	; 0x61a <__vector_24+0xf8>
 612:	90 91 06 01 	lds	r25, 0x0106	; 0x800106 <i2c_buffer_index>
 616:	91 11       	cpse	r25, r1
 618:	81 e0       	ldi	r24, 0x01	; 1
 61a:	88 23       	and	r24, r24
 61c:	21 f0       	breq	.+8      	; 0x626 <__vector_24+0x104>
                // Commande pour forcer la mise à jour de l'affichage
                st7789_update_display();
 61e:	0e 94 c5 01 	call	0x38a	; 0x38a <_Z21st7789_update_displayv>
                i2c_buffer_index = 0;
 622:	10 92 06 01 	sts	0x0106, r1	; 0x800106 <i2c_buffer_index>
            }
            
            TWCR |= (1 << TWEA) | (1 << TWINT);
 626:	ec eb       	ldi	r30, 0xBC	; 188
 628:	f0 e0       	ldi	r31, 0x00	; 0
 62a:	80 81       	ld	r24, Z
 62c:	80 6c       	ori	r24, 0xC0	; 192
 62e:	80 83       	st	Z, r24
            break;
 630:	4a c0       	rjmp	.+148    	; 0x6c6 <__vector_24+0x1a4>
            
        case 0x88:  // Données reçues, NACK retourné
            TWCR |= (1 << TWINT);
 632:	ec eb       	ldi	r30, 0xBC	; 188
 634:	f0 e0       	ldi	r31, 0x00	; 0
 636:	80 81       	ld	r24, Z
 638:	80 68       	ori	r24, 0x80	; 128
 63a:	80 83       	st	Z, r24
            break;
 63c:	44 c0       	rjmp	.+136    	; 0x6c6 <__vector_24+0x1a4>
        case 0xB0:  // SLA+R reçu après arbitration, ACK retourné
            debug_print("[I2C] SLA+R received, command: 0x");
            debug_print_hex(i2c_command);
            debug_print("\r\n");
            // Envoyer la réponse selon la commande
            if (i2c_command == CMD_READ_LIGHT) {
 63e:	80 91 05 01 	lds	r24, 0x0105	; 0x800105 <i2c_command>
 642:	81 30       	cpi	r24, 0x01	; 1
 644:	39 f4       	brne	.+14     	; 0x654 <__vector_24+0x132>
                // Envoyer la luminosité (2 bytes, little-endian)
                TWDR = (uint8_t)(light_level & 0xFF);
 646:	80 91 02 01 	lds	r24, 0x0102	; 0x800102 <light_level>
 64a:	90 91 03 01 	lds	r25, 0x0103	; 0x800103 <light_level+0x1>
 64e:	80 93 bb 00 	sts	0x00BB, r24	; 0x8000bb <__TEXT_REGION_LENGTH__+0x7f80bb>
 652:	0f c0       	rjmp	.+30     	; 0x672 <__vector_24+0x150>
                debug_print("[I2C] Sending light level (low byte): 0x");
                debug_print_hex(TWDR);
                debug_print("\r\n");
            } else if (i2c_command == CMD_GET_LED) {
 654:	80 91 05 01 	lds	r24, 0x0105	; 0x800105 <i2c_command>
 658:	83 30       	cpi	r24, 0x03	; 3
 65a:	29 f4       	brne	.+10     	; 0x666 <__vector_24+0x144>
                // Envoyer la luminosité LED
                TWDR = led_brightness;
 65c:	80 91 04 01 	lds	r24, 0x0104	; 0x800104 <led_brightness>
 660:	80 93 bb 00 	sts	0x00BB, r24	; 0x8000bb <__TEXT_REGION_LENGTH__+0x7f80bb>
 664:	06 c0       	rjmp	.+12     	; 0x672 <__vector_24+0x150>
                debug_print("[I2C] Sending LED brightness: ");
                debug_print_dec(TWDR);
                debug_print("\r\n");
            } else {
                // Par défaut, envoyer la luminosité
                TWDR = (uint8_t)(light_level & 0xFF);
 666:	80 91 02 01 	lds	r24, 0x0102	; 0x800102 <light_level>
 66a:	90 91 03 01 	lds	r25, 0x0103	; 0x800103 <light_level+0x1>
 66e:	80 93 bb 00 	sts	0x00BB, r24	; 0x8000bb <__TEXT_REGION_LENGTH__+0x7f80bb>
            }
            TWCR |= (1 << TWEA) | (1 << TWINT);
 672:	ec eb       	ldi	r30, 0xBC	; 188
 674:	f0 e0       	ldi	r31, 0x00	; 0
 676:	80 81       	ld	r24, Z
 678:	80 6c       	ori	r24, 0xC0	; 192
 67a:	80 83       	st	Z, r24
            break;
 67c:	24 c0       	rjmp	.+72     	; 0x6c6 <__vector_24+0x1a4>
            
        // Données transmises
        case 0xB8:  // Données transmises, ACK reçu
            // Envoyer le deuxième byte si nécessaire
            if (i2c_command == CMD_READ_LIGHT) {
 67e:	80 91 05 01 	lds	r24, 0x0105	; 0x800105 <i2c_command>
 682:	81 30       	cpi	r24, 0x01	; 1
 684:	39 f4       	brne	.+14     	; 0x694 <__vector_24+0x172>
                TWDR = (uint8_t)((light_level >> 8) & 0xFF);
 686:	80 91 02 01 	lds	r24, 0x0102	; 0x800102 <light_level>
 68a:	90 91 03 01 	lds	r25, 0x0103	; 0x800103 <light_level+0x1>
 68e:	90 93 bb 00 	sts	0x00BB, r25	; 0x8000bb <__TEXT_REGION_LENGTH__+0x7f80bb>
 692:	02 c0       	rjmp	.+4      	; 0x698 <__vector_24+0x176>
                debug_print("[I2C] Sending light level (high byte): 0x");
                debug_print_hex(TWDR);
                debug_print("\r\n");
            } else {
                TWDR = 0;  // Pas de deuxième byte pour CMD_GET_LED
 694:	10 92 bb 00 	sts	0x00BB, r1	; 0x8000bb <__TEXT_REGION_LENGTH__+0x7f80bb>
            }
            TWCR |= (1 << TWEA) | (1 << TWINT);
 698:	ec eb       	ldi	r30, 0xBC	; 188
 69a:	f0 e0       	ldi	r31, 0x00	; 0
 69c:	80 81       	ld	r24, Z
 69e:	80 6c       	ori	r24, 0xC0	; 192
 6a0:	80 83       	st	Z, r24
            break;
 6a2:	11 c0       	rjmp	.+34     	; 0x6c6 <__vector_24+0x1a4>
            
        case 0xC0:  // Données transmises, NACK reçu
        case 0xC8:  // Dernière donnée transmise, ACK reçu
            TWCR |= (1 << TWEA) | (1 << TWINT);
 6a4:	ec eb       	ldi	r30, 0xBC	; 188
 6a6:	f0 e0       	ldi	r31, 0x00	; 0
 6a8:	80 81       	ld	r24, Z
 6aa:	80 6c       	ori	r24, 0xC0	; 192
 6ac:	80 83       	st	Z, r24
            break;
 6ae:	0b c0       	rjmp	.+22     	; 0x6c6 <__vector_24+0x1a4>
            
        // STOP ou répété START
        case 0xA0:  // STOP ou répété START reçu
            TWCR |= (1 << TWEA) | (1 << TWINT);
 6b0:	ec eb       	ldi	r30, 0xBC	; 188
 6b2:	f0 e0       	ldi	r31, 0x00	; 0
 6b4:	80 81       	ld	r24, Z
 6b6:	80 6c       	ori	r24, 0xC0	; 192
 6b8:	80 83       	st	Z, r24
            break;
 6ba:	05 c0       	rjmp	.+10     	; 0x6c6 <__vector_24+0x1a4>
            
        default:
            TWCR |= (1 << TWEA) | (1 << TWINT);
 6bc:	ec eb       	ldi	r30, 0xBC	; 188
 6be:	f0 e0       	ldi	r31, 0x00	; 0
 6c0:	80 81       	ld	r24, Z
 6c2:	80 6c       	ori	r24, 0xC0	; 192
 6c4:	80 83       	st	Z, r24
            break;
    }
}
 6c6:	ff 91       	pop	r31
 6c8:	ef 91       	pop	r30
 6ca:	bf 91       	pop	r27
 6cc:	af 91       	pop	r26
 6ce:	9f 91       	pop	r25
 6d0:	8f 91       	pop	r24
 6d2:	7f 91       	pop	r23
 6d4:	6f 91       	pop	r22
 6d6:	5f 91       	pop	r21
 6d8:	4f 91       	pop	r20
 6da:	3f 91       	pop	r19
 6dc:	2f 91       	pop	r18
 6de:	0f 90       	pop	r0
 6e0:	0f be       	out	0x3f, r0	; 63
 6e2:	0f 90       	pop	r0
 6e4:	1f 90       	pop	r1
 6e6:	18 95       	reti

000006e8 <__udivmodhi4>:
 6e8:	aa 1b       	sub	r26, r26
 6ea:	bb 1b       	sub	r27, r27
 6ec:	51 e1       	ldi	r21, 0x11	; 17
 6ee:	07 c0       	rjmp	.+14     	; 0x6fe <__udivmodhi4_ep>

000006f0 <__udivmodhi4_loop>:
 6f0:	aa 1f       	adc	r26, r26
 6f2:	bb 1f       	adc	r27, r27
 6f4:	a6 17       	cp	r26, r22
 6f6:	b7 07       	cpc	r27, r23
 6f8:	10 f0       	brcs	.+4      	; 0x6fe <__udivmodhi4_ep>
 6fa:	a6 1b       	sub	r26, r22
 6fc:	b7 0b       	sbc	r27, r23

000006fe <__udivmodhi4_ep>:
 6fe:	88 1f       	adc	r24, r24
 700:	99 1f       	adc	r25, r25
 702:	5a 95       	dec	r21
 704:	a9 f7       	brne	.-22     	; 0x6f0 <__udivmodhi4_loop>
 706:	80 95       	com	r24
 708:	90 95       	com	r25
 70a:	bc 01       	movw	r22, r24
 70c:	cd 01       	movw	r24, r26
 70e:	08 95       	ret

00000710 <__divmodhi4>:
 710:	97 fb       	bst	r25, 7
 712:	07 2e       	mov	r0, r23
 714:	16 f4       	brtc	.+4      	; 0x71a <__divmodhi4+0xa>
 716:	00 94       	com	r0
 718:	07 d0       	rcall	.+14     	; 0x728 <__divmodhi4_neg1>
 71a:	77 fd       	sbrc	r23, 7
 71c:	09 d0       	rcall	.+18     	; 0x730 <__divmodhi4_neg2>
 71e:	0e 94 74 03 	call	0x6e8	; 0x6e8 <__udivmodhi4>
 722:	07 fc       	sbrc	r0, 7
 724:	05 d0       	rcall	.+10     	; 0x730 <__divmodhi4_neg2>
 726:	3e f4       	brtc	.+14     	; 0x736 <__divmodhi4_exit>

00000728 <__divmodhi4_neg1>:
 728:	90 95       	com	r25
 72a:	81 95       	neg	r24
 72c:	9f 4f       	sbci	r25, 0xFF	; 255
 72e:	08 95       	ret

00000730 <__divmodhi4_neg2>:
 730:	70 95       	com	r23
 732:	61 95       	neg	r22
 734:	7f 4f       	sbci	r23, 0xFF	; 255

00000736 <__divmodhi4_exit>:
 736:	08 95       	ret

00000738 <_exit>:
 738:	f8 94       	cli

0000073a <__stop_program>:
 73a:	ff cf       	rjmp	.-2      	; 0x73a <__stop_program>
